
finalproject.elf:     file format elf32-littlenios2
finalproject.elf
architecture: nios2:r1, flags 0x00000112:
EXEC_P, HAS_SYMS, D_PAGED
start address 0x04000244

Program Header:
    LOAD off    0x00001000 vaddr 0x04000000 paddr 0x04000000 align 2**12
         filesz 0x00000020 memsz 0x00000020 flags r-x
    LOAD off    0x00001020 vaddr 0x04000020 paddr 0x04000020 align 2**12
         filesz 0x00015920 memsz 0x00015920 flags r-x
    LOAD off    0x00016940 vaddr 0x04015940 paddr 0x040174b8 align 2**12
         filesz 0x00001b78 memsz 0x00001b78 flags rw-
    LOAD off    0x00019030 vaddr 0x04019030 paddr 0x04019030 align 2**12
         filesz 0x00000000 memsz 0x000002e8 flags rw-

Sections:
Idx Name          Size      VMA       LMA       File off  Algn
  0 .entry        00000020  04000000  04000000  00001000  2**5
                  CONTENTS, ALLOC, LOAD, READONLY, CODE
  1 .exceptions   00000224  04000020  04000020  00001020  2**2
                  CONTENTS, ALLOC, LOAD, READONLY, CODE
  2 .text         00014e0c  04000244  04000244  00001244  2**2
                  CONTENTS, ALLOC, LOAD, READONLY, CODE
  3 .rodata       000008f0  04015050  04015050  00016050  2**2
                  CONTENTS, ALLOC, LOAD, READONLY, DATA
  4 .rwdata       00001b78  04015940  040174b8  00016940  2**2
                  CONTENTS, ALLOC, LOAD, DATA, SMALL_DATA
  5 .bss          000002e8  04019030  04019030  00019030  2**2
                  ALLOC, SMALL_DATA
  6 .sdram        00000000  04019318  04019318  000184b8  2**0
                  CONTENTS
  7 .comment      00000023  00000000  00000000  000184b8  2**0
                  CONTENTS, READONLY
  8 .debug_aranges 00001108  00000000  00000000  000184e0  2**3
                  CONTENTS, READONLY, DEBUGGING
  9 .debug_info   0002927d  00000000  00000000  000195e8  2**0
                  CONTENTS, READONLY, DEBUGGING
 10 .debug_abbrev 0000a91d  00000000  00000000  00042865  2**0
                  CONTENTS, READONLY, DEBUGGING
 11 .debug_line   0000d0f4  00000000  00000000  0004d182  2**0
                  CONTENTS, READONLY, DEBUGGING
 12 .debug_frame  00003028  00000000  00000000  0005a278  2**2
                  CONTENTS, READONLY, DEBUGGING
 13 .debug_str    00004e02  00000000  00000000  0005d2a0  2**0
                  CONTENTS, READONLY, DEBUGGING
 14 .debug_loc    000190ef  00000000  00000000  000620a2  2**0
                  CONTENTS, READONLY, DEBUGGING
 15 .debug_alt_sim_info 00000060  00000000  00000000  0007b194  2**2
                  CONTENTS, READONLY, DEBUGGING
 16 .debug_ranges 00001bf0  00000000  00000000  0007b1f8  2**3
                  CONTENTS, READONLY, DEBUGGING
 17 .thread_model 00000003  00000000  00000000  00081046  2**0
                  CONTENTS, READONLY
 18 .cpu          0000000c  00000000  00000000  00081049  2**0
                  CONTENTS, READONLY
 19 .qsys         00000001  00000000  00000000  00081055  2**0
                  CONTENTS, READONLY
 20 .simulation_enabled 00000001  00000000  00000000  00081056  2**0
                  CONTENTS, READONLY
 21 .sysid_hash   00000004  00000000  00000000  00081057  2**0
                  CONTENTS, READONLY
 22 .sysid_base   00000004  00000000  00000000  0008105b  2**0
                  CONTENTS, READONLY
 23 .sysid_time   00000004  00000000  00000000  0008105f  2**0
                  CONTENTS, READONLY
 24 .stderr_dev   0000000b  00000000  00000000  00081063  2**0
                  CONTENTS, READONLY
 25 .stdin_dev    0000000b  00000000  00000000  0008106e  2**0
                  CONTENTS, READONLY
 26 .stdout_dev   0000000b  00000000  00000000  00081079  2**0
                  CONTENTS, READONLY
 27 .sopc_system_name 0000000c  00000000  00000000  00081084  2**0
                  CONTENTS, READONLY
 28 .quartus_project_dir 00000026  00000000  00000000  00081090  2**0
                  CONTENTS, READONLY
 29 .jdi          00005be8  00000000  00000000  000810b6  2**0
                  CONTENTS, READONLY
 30 .sopcinfo     0009ce4c  00000000  00000000  00086c9e  2**0
                  CONTENTS, READONLY
SYMBOL TABLE:
04000000 l    d  .entry	00000000 .entry
04000020 l    d  .exceptions	00000000 .exceptions
04000244 l    d  .text	00000000 .text
04015050 l    d  .rodata	00000000 .rodata
04015940 l    d  .rwdata	00000000 .rwdata
04019030 l    d  .bss	00000000 .bss
04019318 l    d  .sdram	00000000 .sdram
00000000 l    d  .comment	00000000 .comment
00000000 l    d  .debug_aranges	00000000 .debug_aranges
00000000 l    d  .debug_info	00000000 .debug_info
00000000 l    d  .debug_abbrev	00000000 .debug_abbrev
00000000 l    d  .debug_line	00000000 .debug_line
00000000 l    d  .debug_frame	00000000 .debug_frame
00000000 l    d  .debug_str	00000000 .debug_str
00000000 l    d  .debug_loc	00000000 .debug_loc
00000000 l    d  .debug_alt_sim_info	00000000 .debug_alt_sim_info
00000000 l    d  .debug_ranges	00000000 .debug_ranges
00000000 l    df *ABS*	00000000 ../finalproject_bsp//obj/HAL/src/crt0.o
0400028c l       .text	00000000 alt_after_alt_main
00000000 l    df *ABS*	00000000 alt_irq_handler.c
00000000 l    df *ABS*	00000000 alt_instruction_exception_entry.c
00000000 l    df *ABS*	00000000 main.c
0401745c l     O .rwdata	00000001 addr
00000000 l    df *ABS*	00000000 sgtl5000.c
00000000 l    df *ABS*	00000000 HID.c
00000000 l    df *ABS*	00000000 MAX3421E.c
00000000 l    df *ABS*	00000000 transfer.c
04019040 l     O .bss	00000004 usb_delay.2608
04019044 l     O .bss	00000001 tmp_addr.2609
00000000 l    df *ABS*	00000000 libgcc2.c
00000000 l    df *ABS*	00000000 lib2-divmod.c
00000000 l    df *ABS*	00000000 gesf2.c
00000000 l    df *ABS*	00000000 mulsf3.c
00000000 l    df *ABS*	00000000 subsf3.c
00000000 l    df *ABS*	00000000 fixsfsi.c
00000000 l    df *ABS*	00000000 floatunsisf.c
00000000 l    df *ABS*	00000000 libgcc2.c
00000000 l    df *ABS*	00000000 libgcc2.c
00000000 l    df *ABS*	00000000 malloc.c
00000000 l    df *ABS*	00000000 mallocr.c
00000000 l    df *ABS*	00000000 memcpy.c
00000000 l    df *ABS*	00000000 printf.c
00000000 l    df *ABS*	00000000 puts.c
00000000 l    df *ABS*	00000000 sbrkr.c
00000000 l    df *ABS*	00000000 strlen.c
00000000 l    df *ABS*	00000000 vfprintf.c
0401575a l     O .rodata	00000010 zeroes.4404
04006bc8 l     F .text	000000bc __sbprintf
0401576a l     O .rodata	00000010 blanks.4403
00000000 l    df *ABS*	00000000 wsetup.c
00000000 l    df *ABS*	00000000 dtoa.c
04006dd8 l     F .text	00000200 quorem
00000000 l    df *ABS*	00000000 fflush.c
00000000 l    df *ABS*	00000000 findfp.c
04008908 l     F .text	00000008 __fp_unlock
0400891c l     F .text	0000019c __sinit.part.1
04008ab8 l     F .text	00000008 __fp_lock
00000000 l    df *ABS*	00000000 mallocr.c
00000000 l    df *ABS*	00000000 fvwrite.c
00000000 l    df *ABS*	00000000 fwalk.c
00000000 l    df *ABS*	00000000 impure.c
04015d78 l     O .rwdata	00000424 impure_data
00000000 l    df *ABS*	00000000 int_errno.c
00000000 l    df *ABS*	00000000 locale.c
040161bc l     O .rwdata	00000020 lc_ctype_charset
0401619c l     O .rwdata	00000020 lc_message_charset
040161dc l     O .rwdata	00000038 lconv
00000000 l    df *ABS*	00000000 makebuf.c
00000000 l    df *ABS*	00000000 memchr.c
00000000 l    df *ABS*	00000000 memmove.c
00000000 l    df *ABS*	00000000 memset.c
00000000 l    df *ABS*	00000000 mprec.c
0401579c l     O .rodata	0000000c p05.2768
00000000 l    df *ABS*	00000000 mallocr.c
00000000 l    df *ABS*	00000000 s_fpclassify.c
00000000 l    df *ABS*	00000000 stdio.c
00000000 l    df *ABS*	00000000 strcmp.c
00000000 l    df *ABS*	00000000 vfprintf.c
0400b50c l     F .text	000000fc __sprint_r.part.0
040158d0 l     O .rodata	00000010 blanks.4348
040158c0 l     O .rodata	00000010 zeroes.4349
0400ca98 l     F .text	000000bc __sbprintf
00000000 l    df *ABS*	00000000 writer.c
00000000 l    df *ABS*	00000000 closer.c
00000000 l    df *ABS*	00000000 mallocr.c
00000000 l    df *ABS*	00000000 fclose.c
00000000 l    df *ABS*	00000000 fputwc.c
00000000 l    df *ABS*	00000000 fstatr.c
00000000 l    df *ABS*	00000000 isattyr.c
00000000 l    df *ABS*	00000000 lseekr.c
00000000 l    df *ABS*	00000000 readr.c
00000000 l    df *ABS*	00000000 wbuf.c
00000000 l    df *ABS*	00000000 wcrtomb.c
00000000 l    df *ABS*	00000000 wctomb_r.c
00000000 l    df *ABS*	00000000 libgcc2.c
00000000 l    df *ABS*	00000000 libgcc2.c
00000000 l    df *ABS*	00000000 adddf3.c
00000000 l    df *ABS*	00000000 divdf3.c
00000000 l    df *ABS*	00000000 eqdf2.c
00000000 l    df *ABS*	00000000 gedf2.c
00000000 l    df *ABS*	00000000 ledf2.c
00000000 l    df *ABS*	00000000 muldf3.c
00000000 l    df *ABS*	00000000 subdf3.c
00000000 l    df *ABS*	00000000 fixdfsi.c
00000000 l    df *ABS*	00000000 floatsidf.c
00000000 l    df *ABS*	00000000 floatunsidf.c
00000000 l    df *ABS*	00000000 alt_close.c
0401053c l     F .text	0000003c alt_get_errno
00000000 l    df *ABS*	00000000 alt_dev.c
04010648 l     F .text	0000002c alt_dev_null_write
00000000 l    df *ABS*	00000000 alt_errno.c
00000000 l    df *ABS*	00000000 alt_fstat.c
04010674 l     F .text	0000003c alt_get_errno
00000000 l    df *ABS*	00000000 alt_isatty.c
04010760 l     F .text	0000003c alt_get_errno
00000000 l    df *ABS*	00000000 alt_load.c
04010840 l     F .text	00000068 alt_load_section
00000000 l    df *ABS*	00000000 alt_lseek.c
0401092c l     F .text	0000003c alt_get_errno
00000000 l    df *ABS*	00000000 alt_main.c
00000000 l    df *ABS*	00000000 alt_malloc_lock.c
00000000 l    df *ABS*	00000000 alt_read.c
04010b00 l     F .text	0000003c alt_get_errno
00000000 l    df *ABS*	00000000 alt_release_fd.c
00000000 l    df *ABS*	00000000 alt_sbrk.c
040174a0 l     O .rwdata	00000004 heap_end
00000000 l    df *ABS*	00000000 alt_tick.c
00000000 l    df *ABS*	00000000 alt_usleep.c
00000000 l    df *ABS*	00000000 alt_write.c
04010f20 l     F .text	0000003c alt_get_errno
00000000 l    df *ABS*	00000000 alt_sys_init.c
04011054 l     F .text	00000034 alt_dev_reg
040163bc l     O .rwdata	00000038 i2c_0
040163f4 l     O .rwdata	00001060 jtag_uart_0
00000000 l    df *ABS*	00000000 altera_avalon_i2c.c
04011134 l     F .text	00000110 optional_irq_callback
04011294 l     F .text	0000009c alt_avalon_i2c_irq
00000000 l    df *ABS*	00000000 altera_avalon_jtag_uart_fd.c
00000000 l    df *ABS*	00000000 altera_avalon_jtag_uart_init.c
04012f58 l     F .text	0000020c altera_avalon_jtag_uart_irq
04013164 l     F .text	000000a0 altera_avalon_jtag_uart_timeout
00000000 l    df *ABS*	00000000 altera_avalon_jtag_uart_ioctl.c
00000000 l    df *ABS*	00000000 altera_avalon_jtag_uart_read.c
00000000 l    df *ABS*	00000000 altera_avalon_jtag_uart_write.c
00000000 l    df *ABS*	00000000 altera_avalon_spi.c
00000000 l    df *ABS*	00000000 altera_avalon_timer_sc.c
04013998 l     F .text	00000078 alt_avalon_timer_sc_irq
00000000 l    df *ABS*	00000000 alt_alarm_start.c
00000000 l    df *ABS*	00000000 alt_busy_sleep.c
00000000 l    df *ABS*	00000000 alt_dcache_flush_all.c
00000000 l    df *ABS*	00000000 alt_dev_llist_insert.c
04013d58 l     F .text	0000003c alt_get_errno
00000000 l    df *ABS*	00000000 alt_do_ctors.c
00000000 l    df *ABS*	00000000 alt_do_dtors.c
00000000 l    df *ABS*	00000000 alt_find_dev.c
00000000 l    df *ABS*	00000000 alt_icache_flush_all.c
00000000 l    df *ABS*	00000000 alt_iic.c
00000000 l    df *ABS*	00000000 alt_iic_isr_register.c
00000000 l    df *ABS*	00000000 alt_io_redirect.c
0401425c l     F .text	000000c4 alt_open_fd
00000000 l    df *ABS*	00000000 alt_irq_vars.c
00000000 l    df *ABS*	00000000 alt_open.c
0401439c l     F .text	0000003c alt_get_errno
040143d8 l     F .text	000000c4 alt_file_locked
00000000 l    df *ABS*	00000000 alt_printf.c
00000000 l    df *ABS*	00000000 alt_putchar.c
00000000 l    df *ABS*	00000000 altera_nios2_gen2_irq.c
00000000 l    df *ABS*	00000000 alt_find_file.c
00000000 l    df *ABS*	00000000 alt_get_fd.c
00000000 l    df *ABS*	00000000 alt_icache_flush.c
00000000 l    df *ABS*	00000000 atexit.c
00000000 l    df *ABS*	00000000 exit.c
00000000 l    df *ABS*	00000000 memcmp.c
00000000 l    df *ABS*	00000000 putc.c
00000000 l    df *ABS*	00000000 __atexit.c
00000000 l    df *ABS*	00000000 __call_atexit.c
00000000 l    df *ABS*	00000000 alt_exit.c
0401907c g     O .bss	00000004 alt_instruction_exception_handler
0400aba4 g     F .text	00000074 _mprec_log10
0400ac90 g     F .text	0000008c __any_on
0400d034 g     F .text	00000054 _isatty_r
040157a8 g     O .rodata	00000028 __mprec_tinytens
04017458 g     O .rwdata	00000004 PARAM
04010a3c g     F .text	0000007c alt_main
04017464 g     O .rwdata	00000008 ctrl_xfers
040047f4 g     F .text	000000c0 _puts_r
04019218 g     O .bss	00000100 alt_irq
0400d088 g     F .text	00000060 _lseek_r
0400286c g     F .text	00000624 USB_Task
04017460 g     O .rwdata	00000004 SPIBase
040174b8 g       *ABS*	00000000 __flash_rwdata_start
0400f0cc g     F .text	00000088 .hidden __eqdf2
04019318 g       *ABS*	00000000 __alt_heap_start
040047b8 g     F .text	0000003c printf
0400d2a0 g     F .text	0000009c _wcrtomb_r
04001a20 g     F .text	00000088 kbdPoll
0400b3cc g     F .text	0000005c __sseek
04008c58 g     F .text	00000010 __sinit
0400d148 g     F .text	00000140 __swbuf_r
04009720 g     F .text	0000007c _setlocale_r
04008ac0 g     F .text	00000068 __sfmoreglue
0401198c g     F .text	000000a8 alt_avalon_i2c_rx_read
04010adc g     F .text	00000024 __malloc_unlock
0400058c g     F .text	000001f0 GetDriverandReport
04012b8c g     F .text	00000044 alt_avalon_i2c_enabled_ints_get
04011710 g     F .text	00000094 alt_avalon_i2c_master_config_speed_get
04009a9c g     F .text	0000015c memmove
04008c40 g     F .text	00000018 _cleanup
040123e8 g     F .text	00000208 alt_avalon_i2c_master_transmit_using_interrupts
04009d20 g     F .text	000000a8 _Balloc
04003c48 g     F .text	00000070 .hidden __fixsfsi
04001b74 g     F .text	00000084 MAXreg_wr
04015940 g     O .rwdata	00000030 ClientDriverTable
0400f154 g     F .text	000000dc .hidden __gtdf2
04014858 g     F .text	00000024 altera_nios2_gen2_irq_init
04002e90 g     F .text	0000002c MSDProbe
04000000 g     F .entry	0000001c __reset
04002384 g     F .text	000000e8 XferCtrlData
04000020 g       *ABS*	00000000 __flash_exceptions_start
04019080 g     O .bss	00000010 hid_ep
0400cfd8 g     F .text	0000005c _fstat_r
04019054 g     O .bss	00000004 errno
0400b348 g     F .text	00000008 __seofread
04019068 g     O .bss	00000004 alt_argv
0401f454 g       *ABS*	00000000 _gp
04010ef0 g     F .text	00000030 usleep
04012bd0 g     F .text	0000004c alt_avalon_i2c_rx_fifo_threshold_get
04001cf4 g     F .text	00000070 MAXreg_rd
04003764 g     F .text	000004e4 .hidden __subsf3
040118a0 g     F .text	00000044 alt_avalon_i2c_is_busy
0401623c g     O .rwdata	00000180 alt_fd_list
04001958 g     F .text	00000040 HID_init
04011644 g     F .text	000000cc alt_avalon_i2c_master_config_set
04013ef8 g     F .text	00000090 alt_find_dev
04004640 g     F .text	00000148 memcpy
04008910 g     F .text	0000000c _cleanup_r
040103b8 g     F .text	000000dc .hidden __floatsidf
04014320 g     F .text	0000007c alt_io_redirect
0400f230 g     F .text	000000f4 .hidden __ltdf2
04015050 g       *ABS*	00000000 __DTOR_END__
0401222c g     F .text	000001bc alt_avalon_i2c_master_transmit
040048b4 g     F .text	00000014 puts
04014ab8 g     F .text	0000009c alt_exception_cause_generated_bad_addr
0400b280 g     F .text	00000074 __fpclassifyd
0400ab00 g     F .text	000000a4 __ratio
0400ca7c g     F .text	0000001c __vfiprintf_internal
0401335c g     F .text	0000021c altera_avalon_jtag_uart_read
04003e0c g     F .text	00000014 malloc
04004788 g     F .text	00000030 _printf_r
040031f0 g     F .text	00000064 .hidden __udivsi3
0401079c g     F .text	000000a4 isatty
040157f8 g     O .rodata	000000c8 __mprec_tens
0400979c g     F .text	0000000c __locale_charset
04014a28 g     F .text	00000090 alt_icache_flush
040114b0 g     F .text	00000098 alt_avalon_i2c_enable
04019050 g     O .bss	00000004 __malloc_top_pad
04012ac0 g     F .text	00000068 alt_avalon_i2c_int_disable
0401746c g     O .rwdata	00000001 usb_task_state
04017480 g     O .rwdata	00000004 __mb_cur_max
040097cc g     F .text	0000000c _localeconv_r
0400a12c g     F .text	0000003c __i2b
040090dc g     F .text	000004bc __sfvwrite_r
040048c8 g     F .text	00000054 _sbrk_r
0400d0e8 g     F .text	00000060 _read_r
04002038 g     F .text	00000094 MAX3421E_init
0400077c g     F .text	00000080 setKeycode
04000ff4 g     F .text	000000b4 SGTL5000_Reg_Rd
04017498 g     O .rwdata	00000004 alt_max_fd
0400cccc g     F .text	000000f0 _fclose_r
040088d8 g     F .text	00000030 fflush
0401904c g     O .bss	00000004 __malloc_max_sbrked_mem
040125f0 g     F .text	0000020c alt_avalon_i2c_master_receive
0400df38 g     F .text	000008ac .hidden __adddf3
0400a8a8 g     F .text	0000010c __b2d
0400da00 g     F .text	00000538 .hidden __umoddi3
04010968 g     F .text	000000d4 lseek
04012b28 g     F .text	00000064 alt_avalon_i2c_int_enable
04017478 g     O .rwdata	00000004 _global_impure_ptr
0400ad1c g     F .text	00000564 _realloc_r
04019318 g       *ABS*	00000000 __bss_end
0401416c g     F .text	000000f0 alt_iic_isr_register
04010de8 g     F .text	00000108 alt_tick
0400d488 g     F .text	00000578 .hidden __udivdi3
040129e8 g     F .text	00000058 alt_avalon_i2c_int_status_get
0400cf34 g     F .text	00000024 _fputwc_r
040157d0 g     O .rodata	00000028 __mprec_bigtens
04009f10 g     F .text	00000104 __s2b
04010494 g     F .text	000000a8 .hidden __floatunsidf
0400a5e8 g     F .text	00000060 __mcmp
04008c78 g     F .text	00000018 __fp_lock_all
04014120 g     F .text	0000004c alt_ic_irq_enabled
04010d4c g     F .text	0000009c alt_alarm_stop
04011330 g     F .text	00000054 alt_avalon_i2c_register_callback
04019078 g     O .bss	00000004 alt_irq_active
04011384 g     F .text	000000ec alt_avalon_i2c_init
04002f58 g     F .text	0000002c DummyProbe
040000fc g     F .exceptions	000000d4 alt_irq_handler
04016214 g     O .rwdata	00000028 alt_dev_null
04001998 g     F .text	00000088 mousePoll
04001e8c g     F .text	00000024 Vbus_power
04013d10 g     F .text	00000048 alt_dcache_flush_all
0400a014 g     F .text	00000068 __hi0bits
04010338 g     F .text	00000080 .hidden __fixdfsi
040174b8 g       *ABS*	00000000 __ram_rwdata_end
04017490 g     O .rwdata	00000008 alt_dev_list
04010f5c g     F .text	000000f8 write
04014c1c g     F .text	000000a0 _putc_r
04011cc0 g     F .text	0000004c alt_avalon_i2c_check_arblost
040032ac g     F .text	000000bc .hidden __gtsf2
04012a84 g     F .text	0000003c alt_avalon_i2c_int_clear
04015940 g       *ABS*	00000000 __ram_rodata_end
04019045 g     O .bss	00000001 usb_error
040106b0 g     F .text	000000b0 fstat
0400f230 g     F .text	000000f4 .hidden __ledf2
040174ac g     O .rwdata	00000008 alt_avalon_i2c_list
0400a360 g     F .text	00000140 __pow5mult
0400b620 g     F .text	0000145c ___vfiprintf_internal_r
04019060 g     O .bss	00000004 __nlocale_changed
04003254 g     F .text	00000058 .hidden __umodsi3
04019318 g       *ABS*	00000000 end
04012e98 g     F .text	000000c0 altera_avalon_jtag_uart_init
040001d0 g     F .exceptions	00000074 alt_instruction_exception_entry
04011470 g     F .text	00000040 alt_avalon_i2c_open
040024e0 g     F .text	00000164 XferDispatchPkt
04015050 g       *ABS*	00000000 __CTOR_LIST__
08000000 g       *ABS*	00000000 __alt_stack_pointer
04011e40 g     F .text	000000e8 alt_avalon_i2c_master_tx
04013a10 g     F .text	0000007c alt_avalon_timer_sc_init
04003da8 g     F .text	00000064 .hidden __clzsi2
04013578 g     F .text	00000224 altera_avalon_jtag_uart_write
04008c68 g     F .text	00000004 __sfp_lock_acquire
040099b8 g     F .text	000000e4 memchr
040049b4 g     F .text	000021f8 ___vfprintf_internal_r
04002204 g     F .text	00000034 MaxGpxHandler
04008dcc g     F .text	00000310 _free_r
040145f0 g     F .text	0000022c alt_printf
040097a8 g     F .text	00000010 __locale_mb_cur_max
04014e9c g     F .text	00000180 __call_exitprocs
0401905c g     O .bss	00000004 __mlocale_changed
04011244 g     F .text	00000050 alt_avalon_i2c_register_optional_irq_handler
04017470 g     O .rwdata	00000004 __malloc_sbrk_base
04000244 g     F .text	0000004c _start
04019070 g     O .bss	00000004 _alt_tick_rate
04001d64 g     F .text	00000080 MAXbytes_rd
040127fc g     F .text	000001ec alt_avalon_i2c_master_receive_using_interrupts
04012c1c g     F .text	00000064 alt_avalon_i2c_rx_fifo_threshold_set
0400a4a0 g     F .text	00000148 __lshift
0401379c g     F .text	000001fc alt_avalon_spi_command
04019074 g     O .bss	00000004 _alt_nticks
04010b3c g     F .text	000000fc read
040110c0 g     F .text	00000074 alt_sys_init
040191d0 g     O .bss	00000048 devtable
04014d84 g     F .text	00000118 __register_exitproc
04001550 g     F .text	00000408 HIDKProbe
04019090 g     O .bss	00000018 msd_ep
04012064 g     F .text	000001c8 alt_avalon_i2c_master_tx_rx
0400a168 g     F .text	000001f8 __multiply
04013204 g     F .text	00000068 altera_avalon_jtag_uart_close
040027d4 g     F .text	00000098 USB_init
040190d0 g     O .bss	00000100 bigbuf
04015940 g       *ABS*	00000000 __ram_rwdata_start
04015050 g       *ABS*	00000000 __ram_rodata_start
040190a8 g     O .bss	00000028 __malloc_current_mallinfo
0401903c g     O .bss	00000001 last_usb_task_state
0400a9b4 g     F .text	0000014c __d2b
04019034 g     O .bss	00000008 dev0ep
040002dc g     F .text	00000050 clearLED
04012d34 g     F .text	00000060 altera_avalon_jtag_uart_read_fd
04014984 g     F .text	000000a4 alt_get_fd
04013bb8 g     F .text	00000158 alt_busy_sleep
04002ebc g     F .text	00000038 MSDEventHandler
0400cbb4 g     F .text	00000054 _close_r
04014ba0 g     F .text	0000007c memcmp
040118e4 g     F .text	000000a8 alt_avalon_i2c_rx_read_available
04012df4 g     F .text	00000050 altera_avalon_jtag_uart_close_fd
04019318 g       *ABS*	00000000 __alt_stack_base
04012e44 g     F .text	00000054 altera_avalon_jtag_uart_ioctl_fd
04006c84 g     F .text	00000154 __swsetup_r
0400e7e4 g     F .text	000008e8 .hidden __divdf3
04008b28 g     F .text	00000118 __sfp
0400ac18 g     F .text	00000078 __copybits
04015970 g     O .rwdata	00000408 __malloc_av_
04008c74 g     F .text	00000004 __sinit_lock_release
04002f20 g     F .text	00000038 CDCEventHandler
0400f324 g     F .text	00000718 .hidden __muldf3
04002f84 g     F .text	00000038 DummyEventHandler
0400b2f4 g     F .text	00000054 __sread
0401487c g     F .text	00000108 alt_find_file
04013d94 g     F .text	000000a4 alt_dev_llist_insert
04010ab8 g     F .text	00000024 __malloc_lock
04010c9c g     F .text	000000b0 sbrk
04011d0c g     F .text	00000134 alt_avalon_i2c_interrupt_transaction_status
04011c74 g     F .text	0000004c alt_avalon_i2c_check_nack
0400887c g     F .text	0000005c _fflush_r
0400cc08 g     F .text	000000c4 _calloc_r
04019030 g       *ABS*	00000000 __bss_start
04001eb0 g     F .text	00000188 MAX_busprobe
04019030 g     O .bss	00000002 hid_device
04009bf8 g     F .text	00000128 memset
040007fc g     F .text	000007f8 main
040020cc g     F .text	0000006c MAX3421E_Task
04011c40 g     F .text	00000034 alt_avalon_i2c_master_target_set
0401906c g     O .bss	00000004 alt_envp
04019048 g     O .bss	00000004 __malloc_max_total_mem
04012d94 g     F .text	00000060 altera_avalon_jtag_uart_write_fd
0400d288 g     F .text	00000018 __swbuf
04003014 g     F .text	00000084 ConvUTF8ToStr
04012a40 g     F .text	00000044 alt_avalon_i2c_int_raw_status_get
0400b428 g     F .text	00000008 __sclose
08000000 g       *ABS*	00000000 __alt_heap_limit
0400cdbc g     F .text	00000014 fclose
04006fd8 g     F .text	00001688 _dtoa_r
04003e34 g     F .text	0000080c _malloc_r
0400d3fc g     F .text	00000030 __ascii_wctomb
0401749c g     O .rwdata	00000004 alt_errno
04009598 g     F .text	000000c4 _fwalk
04014cbc g     F .text	000000c8 putc
040030f8 g     F .text	00000084 .hidden __divsi3
04002644 g     F .text	00000190 XferInTransfer
0400044c g     F .text	00000140 printSignedHex1
04008ca8 g     F .text	00000124 _malloc_trim_r
04015050 g       *ABS*	00000000 __CTOR_END__
04003368 g     F .text	000003fc .hidden __mulsf3
04002fdc g     F .text	00000038 GetDevtable
0400b430 g     F .text	000000dc strcmp
04015050 g       *ABS*	00000000 __flash_rodata_start
04015050 g       *ABS*	00000000 __DTOR_LIST__
0400246c g     F .text	00000074 XferCtrlND
040010a8 g     F .text	000000a0 SGTL5000_Reg_Wr
0400f0cc g     F .text	00000088 .hidden __nedf2
04001de4 g     F .text	000000a8 MAX3421E_reset
04011088 g     F .text	00000038 alt_irq_init
04010c38 g     F .text	00000064 alt_release_fd
04015614 g     O .rodata	00000100 .hidden __clz_tab
04019058 g     O .bss	00000004 _PathLocale
04014b54 g     F .text	00000014 atexit
040032ac g     F .text	000000bc .hidden __gesf2
0400cb54 g     F .text	00000060 _write_r
040097d8 g     F .text	00000018 setlocale
0401747c g     O .rwdata	00000004 _impure_ptr
04019064 g     O .bss	00000004 alt_argc
04008660 g     F .text	0000021c __sflush_r
04013e98 g     F .text	00000060 _do_dtors
040097c4 g     F .text	00000008 __locale_cjk_lang
04011c08 g     F .text	00000038 alt_avalon_i2c_master_target_get
04011b18 g     F .text	000000f0 alt_avalon_i2c_send_address
04001bf8 g     F .text	000000fc MAXbytes_wr
04000020 g       .exceptions	00000000 alt_irq_entry
0400a844 g     F .text	00000064 __ulp
04008c90 g     F .text	00000018 __fp_unlock_all
04017488 g     O .rwdata	00000008 alt_fs_list
04002ef4 g     F .text	0000002c CDCProbe
04000020 g       *ABS*	00000000 __ram_exceptions_start
040097f0 g     F .text	0000000c localeconv
04000290 g     F .text	0000004c setLED
04002fbc g     F .text	00000020 GetUsbTaskState
04012ccc g     F .text	00000068 alt_avalon_i2c_tfr_cmd_fifo_threshold_set
04013fbc g     F .text	00000050 alt_ic_isr_register
04011548 g     F .text	0000004c alt_avalon_i2c_disable
0401508c g     O .rodata	00000010 devclasses
040174b8 g       *ABS*	00000000 _edata
04001ae0 g     F .text	00000038 HIDKEventHandler
04019318 g       *ABS*	00000000 _end
04002138 g     F .text	000000cc MaxIntHandler
0400cdd0 g     F .text	00000164 __fputwc
04000244 g       *ABS*	00000000 __ram_exceptions_end
0401326c g     F .text	000000f0 altera_avalon_jtag_uart_ioctl
04011594 g     F .text	000000b0 alt_avalon_i2c_master_config_get
04001b18 g     F .text	00000034 SPI_init
04014094 g     F .text	0000008c alt_ic_irq_disable
04017454 g     O .rwdata	00000004 PARAMVAL
0400b350 g     F .text	0000007c __swrite
04017474 g     O .rwdata	00000004 __malloc_trim_threshold
040097b8 g     F .text	0000000c __locale_msgcharset
04014b68 g     F .text	00000038 exit
0400965c g     F .text	000000c4 _fwalk_reent
04003cb8 g     F .text	000000f0 .hidden __floatunsisf
0400a648 g     F .text	000001fc __mdiff
0400317c g     F .text	00000074 .hidden __modsi3
08000000 g       *ABS*	00000000 __alt_data_end
04000020 g     F .exceptions	00000000 alt_exception
04008c6c g     F .text	00000004 __sfp_lock_release
04000000 g       *ABS*	00000000 __alt_mem_sdram
040117a4 g     F .text	000000fc alt_avalon_i2c_master_config_speed_set
04011a34 g     F .text	000000e4 alt_avalon_i2c_cmd_write
04003098 g     F .text	00000060 .hidden __fixunssfsi
04001aa8 g     F .text	00000038 HIDMEventHandler
0401501c g     F .text	00000034 _exit
04013a8c g     F .text	0000012c alt_alarm_start
0400032c g     F .text	00000120 printSignedHex0
040097fc g     F .text	000001bc __smakebuf_r
0400491c g     F .text	00000098 strlen
0401449c g     F .text	00000154 open
0400f154 g     F .text	000000dc .hidden __gedf2
0401481c g     F .text	0000003c alt_putchar
04017484 g     O .rwdata	00000004 __wctomb
0400b608 g     F .text	00000018 __sprint_r
04013f88 g     F .text	00000034 alt_icache_flush_all
040174b4 g     O .rwdata	00000004 alt_priority_mask
0401400c g     F .text	00000088 alt_ic_irq_enable
04006bac g     F .text	0000001c __vfprintf_internal
04001148 g     F .text	00000408 HIDMProbe
0400d42c g     F .text	0000005c _wctomb_r
04001b4c g     F .text	00000028 SPI_wr
0400fa3c g     F .text	000008fc .hidden __subdf3
0400a07c g     F .text	000000b0 __lo0bits
040174a4 g     O .rwdata	00000008 alt_alarm_list
04013e38 g     F .text	00000060 _do_ctors
0400d33c g     F .text	000000c0 wcrtomb
04010578 g     F .text	000000d0 close
04012c80 g     F .text	0000004c alt_avalon_i2c_tfr_cmd_fifo_threshold_get
040108a8 g     F .text	00000084 alt_load
04011f28 g     F .text	0000013c alt_avalon_i2c_master_rx
0400cf58 g     F .text	00000080 fputwc
04003e20 g     F .text	00000014 free
04008c70 g     F .text	00000004 __sinit_lock_acquire
04002238 g     F .text	0000014c XferCtrlReq
04009df0 g     F .text	00000120 __multadd
04009dc8 g     F .text	00000028 _Bfree



Disassembly of section .entry:

04000000 <__reset>:
#if NIOS2_ICACHE_SIZE > 0 && defined(ALT_ALLOW_CODE_AT_RESET) && (!defined(ALT_SIM_OPTIMIZE) || defined(NIOS2_ECC_PRESENT))
    /* Assume the instruction cache size is always a power of two. */
#if NIOS2_ICACHE_SIZE > 0x8000
    movhi r2, %hi(NIOS2_ICACHE_SIZE)
#else
    movui r2, NIOS2_ICACHE_SIZE
 4000000:	00840014 	movui	r2,4096
#endif

0:
    initi r2
 4000004:	1001483a 	initi	r2
    addi r2, r2, -NIOS2_ICACHE_LINE_SIZE
 4000008:	10bff804 	addi	r2,r2,-32
    bgt r2, zero, 0b
 400000c:	00bffd16 	blt	zero,r2,4000004 <__alt_data_end+0xfc000004>
 * Jump to the _start entry point in the .text section if reset code
 * is allowed or if optimizing for RTL simulation.
 */
#if defined(ALT_ALLOW_CODE_AT_RESET) || defined(ALT_SIM_OPTIMIZE)
    /* Jump to the _start entry point in the .text section. */
    movhi r1, %hi(_start)
 4000010:	00410034 	movhi	at,1024
    ori r1, r1, %lo(_start)
 4000014:	08409114 	ori	at,at,580
    jmp r1
 4000018:	0800683a 	jmp	at
 400001c:	00000000 	call	0 <__reset-0x4000000>

Disassembly of section .exceptions:

04000020 <alt_exception>:

#else /* ALT_EXCEPTION_STACK disabled */
        /* 
         * Reserve space on normal stack for registers about to be pushed.
         */
        addi  sp, sp, -76
 4000020:	deffed04 	addi	sp,sp,-76
         * documentation for details).
         *
         * Leave a gap in the stack frame at 4(sp) for the muldiv handler to
         * store zero into.
         */
        stw   ra,  0(sp)
 4000024:	dfc00015 	stw	ra,0(sp)
        stw   r1,   8(sp)
 4000028:	d8400215 	stw	at,8(sp)
        stw   r2,  12(sp)
 400002c:	d8800315 	stw	r2,12(sp)
        stw   r3,  16(sp)
 4000030:	d8c00415 	stw	r3,16(sp)
        stw   r4,  20(sp)
 4000034:	d9000515 	stw	r4,20(sp)
        stw   r5,  24(sp)
 4000038:	d9400615 	stw	r5,24(sp)
        stw   r6,  28(sp)
 400003c:	d9800715 	stw	r6,28(sp)
        stw   r7,  32(sp)
 4000040:	d9c00815 	stw	r7,32(sp)
        rdctl r5, estatus   /* Read early to avoid usage stall */
 4000044:	000b307a 	rdctl	r5,estatus
        stw   r8,  36(sp)
 4000048:	da000915 	stw	r8,36(sp)
        stw   r9,  40(sp)
 400004c:	da400a15 	stw	r9,40(sp)
        stw   r10, 44(sp)
 4000050:	da800b15 	stw	r10,44(sp)
        stw   r11, 48(sp)
 4000054:	dac00c15 	stw	r11,48(sp)
        stw   r12, 52(sp)
 4000058:	db000d15 	stw	r12,52(sp)
        stw   r13, 56(sp)
 400005c:	db400e15 	stw	r13,56(sp)
        stw   r14, 60(sp)
 4000060:	db800f15 	stw	r14,60(sp)
        stw   r15, 64(sp)
 4000064:	dbc01015 	stw	r15,64(sp)
        /*
         * ea-4 contains the address of the instruction being executed
         * when the exception occured. For interrupt exceptions, we will
         * will be re-issue the isntruction. Store it in 72(sp)
         */
        stw   r5,  68(sp)  /* estatus */
 4000068:	d9401115 	stw	r5,68(sp)
        addi  r15, ea, -4  /* instruction that caused exception */
 400006c:	ebffff04 	addi	r15,ea,-4
        stw   r15,  72(sp)
 4000070:	dbc01215 	stw	r15,72(sp)
#else
        /*
         * Test to see if the exception was a software exception or caused 
         * by an external interrupt, and vector accordingly.
         */
        rdctl r4, ipending
 4000074:	0009313a 	rdctl	r4,ipending
        andi  r2, r5, 1
 4000078:	2880004c 	andi	r2,r5,1
        beq   r2, zero, .Lnot_irq
 400007c:	10000326 	beq	r2,zero,400008c <alt_exception+0x6c>
        beq   r4, zero, .Lnot_irq
 4000080:	20000226 	beq	r4,zero,400008c <alt_exception+0x6c>
        /*
         * Now that all necessary registers have been preserved, call 
         * alt_irq_handler() to process the interrupts.
         */

        call alt_irq_handler
 4000084:	40000fc0 	call	40000fc <alt_irq_handler>

        .section .exceptions.irqreturn, "xa"

        br    .Lexception_exit
 4000088:	00000706 	br	40000a8 <alt_exception+0x88>
         * upon completion, so we write ea (address of instruction *after*
         * the one where the exception occured) into 72(sp). The actual
         * instruction that caused the exception is written in r2, which these
         * handlers will utilize.
         */
        stw ea, 72(sp) /* EA is PC+4 so will skip over instruction causing exception */
 400008c:	df401215 	stw	ea,72(sp)
.Lunknown_16bit:
        addi.n r4, r4, 2 /* Need PC+2 to skip over instruction causing exception */
        stw r4, 72(sp)

#else /* CDX is not Enabled and all instructions are 32bits */
        ldw r2, -4(ea) /* Instruction value that caused exception */
 4000090:	e8bfff17 	ldw	r2,-4(ea)
         * debugger is present) or go into an infinite loop since the
         * handling behavior is undefined; in that case we will not return here.
         */

        /* Load exception-causing address as first argument (r4) */
        addi   r4, ea, -4
 4000094:	e93fff04 	addi	r4,ea,-4

        /* Call the instruction-exception entry */
        call   alt_instruction_exception_entry
 4000098:	40001d00 	call	40001d0 <alt_instruction_exception_entry>
         * instruction
         *
         * Return code was 0: Skip. The instruction after the exception is
         * already stored in 72(sp).
         */
        bne   r2, r0, .Lexception_exit
 400009c:	1000021e 	bne	r2,zero,40000a8 <alt_exception+0x88>

        /*
         * Otherwise, modify 72(sp) to re-issue the instruction that caused the
         * exception.
         */
        addi  r15, ea, -4  /* instruction that caused exception */
 40000a0:	ebffff04 	addi	r15,ea,-4
        stw   r15,  72(sp)
 40000a4:	dbc01215 	stw	r15,72(sp)
        /* 
         * Restore the saved registers, so that all general purpose registers 
         * have been restored to their state at the time the interrupt occured.
         */

        ldw   r5,  68(sp)
 40000a8:	d9401117 	ldw	r5,68(sp)
        ldw   ea,  72(sp)  /* This becomes the PC once eret is executed */
 40000ac:	df401217 	ldw	ea,72(sp)
        ldw   ra,   0(sp)
 40000b0:	dfc00017 	ldw	ra,0(sp)

        wrctl estatus, r5
 40000b4:	2801707a 	wrctl	estatus,r5

        ldw   r1,   8(sp)
 40000b8:	d8400217 	ldw	at,8(sp)
        ldw   r2,  12(sp)
 40000bc:	d8800317 	ldw	r2,12(sp)
        ldw   r3,  16(sp)
 40000c0:	d8c00417 	ldw	r3,16(sp)
        ldw   r4,  20(sp)
 40000c4:	d9000517 	ldw	r4,20(sp)
        ldw   r5,  24(sp)
 40000c8:	d9400617 	ldw	r5,24(sp)
        ldw   r6,  28(sp)
 40000cc:	d9800717 	ldw	r6,28(sp)
        ldw   r7,  32(sp)
 40000d0:	d9c00817 	ldw	r7,32(sp)

#if defined(ALT_EXCEPTION_STACK) && defined(ALT_STACK_CHECK)
        ldw   et, %gprel(alt_exception_old_stack_limit)(gp)
#endif

        ldw   r8,  36(sp)
 40000d4:	da000917 	ldw	r8,36(sp)
        ldw   r9,  40(sp)
 40000d8:	da400a17 	ldw	r9,40(sp)
        ldw   r10, 44(sp)
 40000dc:	da800b17 	ldw	r10,44(sp)
        ldw   r11, 48(sp)
 40000e0:	dac00c17 	ldw	r11,48(sp)
        ldw   r12, 52(sp)
 40000e4:	db000d17 	ldw	r12,52(sp)
        ldw   r13, 56(sp)
 40000e8:	db400e17 	ldw	r13,56(sp)
        ldw   r14, 60(sp)
 40000ec:	db800f17 	ldw	r14,60(sp)
        ldw   r15, 64(sp)
 40000f0:	dbc01017 	ldw	r15,64(sp)
        stw   et, %gprel(alt_stack_limit_value)(gp)
        stw   zero, %gprel(alt_exception_old_stack_limit)(gp)
#endif /* ALT_STACK_CHECK */
        ldw   sp,  76(sp)
#else /* ALT_EXCEPTION_STACK disabled */
        addi  sp, sp, 76
 40000f4:	dec01304 	addi	sp,sp,76

        /*
         * Return to the interrupted instruction.
         */

        eret
 40000f8:	ef80083a 	eret

040000fc <alt_irq_handler>:
 * instruction is present if the macro ALT_CI_INTERRUPT_VECTOR defined.
 */

void alt_irq_handler (void) __attribute__ ((section (".exceptions")));
void alt_irq_handler (void)
{
 40000fc:	defff904 	addi	sp,sp,-28
 4000100:	dfc00615 	stw	ra,24(sp)
 4000104:	df000515 	stw	fp,20(sp)
 4000108:	df000504 	addi	fp,sp,20
  
  /*
   * Notify the operating system that we are at interrupt level.
   */ 
  
  ALT_OS_INT_ENTER();
 400010c:	0001883a 	nop
#ifndef NIOS2_EIC_PRESENT
static ALT_INLINE alt_u32 ALT_ALWAYS_INLINE alt_irq_pending (void)
{
  alt_u32 active;

  NIOS2_READ_IPENDING (active);
 4000110:	0005313a 	rdctl	r2,ipending
 4000114:	e0bffe15 	stw	r2,-8(fp)

  return active;
 4000118:	e0bffe17 	ldw	r2,-8(fp)
   * Consider the case where the high priority interupt is asserted during
   * the interrupt entry sequence for a lower priority interrupt to see why
   * this is the case.
   */

  active = alt_irq_pending ();
 400011c:	e0bffb15 	stw	r2,-20(fp)

  do
  {
    i = 0;
 4000120:	e03ffd15 	stw	zero,-12(fp)
    mask = 1;
 4000124:	00800044 	movi	r2,1
 4000128:	e0bffc15 	stw	r2,-16(fp)
     * called to clear the interrupt condition.
     */

    do
    {
      if (active & mask)
 400012c:	e0fffb17 	ldw	r3,-20(fp)
 4000130:	e0bffc17 	ldw	r2,-16(fp)
 4000134:	1884703a 	and	r2,r3,r2
 4000138:	10001426 	beq	r2,zero,400018c <alt_irq_handler+0x90>
      { 
#ifdef ALT_ENHANCED_INTERRUPT_API_PRESENT
        alt_irq[i].handler(alt_irq[i].context); 
 400013c:	008100b4 	movhi	r2,1026
 4000140:	10a48604 	addi	r2,r2,-28136
 4000144:	e0fffd17 	ldw	r3,-12(fp)
 4000148:	180690fa 	slli	r3,r3,3
 400014c:	10c5883a 	add	r2,r2,r3
 4000150:	10c00017 	ldw	r3,0(r2)
 4000154:	008100b4 	movhi	r2,1026
 4000158:	10a48604 	addi	r2,r2,-28136
 400015c:	e13ffd17 	ldw	r4,-12(fp)
 4000160:	200890fa 	slli	r4,r4,3
 4000164:	1105883a 	add	r2,r2,r4
 4000168:	10800104 	addi	r2,r2,4
 400016c:	10800017 	ldw	r2,0(r2)
 4000170:	1009883a 	mov	r4,r2
 4000174:	183ee83a 	callr	r3
#else
        alt_irq[i].handler(alt_irq[i].context, i); 
#endif
        break;
 4000178:	0001883a 	nop
#ifndef NIOS2_EIC_PRESENT
static ALT_INLINE alt_u32 ALT_ALWAYS_INLINE alt_irq_pending (void)
{
  alt_u32 active;

  NIOS2_READ_IPENDING (active);
 400017c:	0005313a 	rdctl	r2,ipending
 4000180:	e0bfff15 	stw	r2,-4(fp)

  return active;
 4000184:	e0bfff17 	ldw	r2,-4(fp)
 4000188:	00000706 	br	40001a8 <alt_irq_handler+0xac>
      }
      mask <<= 1;
 400018c:	e0bffc17 	ldw	r2,-16(fp)
 4000190:	1085883a 	add	r2,r2,r2
 4000194:	e0bffc15 	stw	r2,-16(fp)
      i++;
 4000198:	e0bffd17 	ldw	r2,-12(fp)
 400019c:	10800044 	addi	r2,r2,1
 40001a0:	e0bffd15 	stw	r2,-12(fp)

    } while (1);
 40001a4:	003fe106 	br	400012c <__alt_data_end+0xfc00012c>

    active = alt_irq_pending ();
 40001a8:	e0bffb15 	stw	r2,-20(fp)
    
  } while (active);
 40001ac:	e0bffb17 	ldw	r2,-20(fp)
 40001b0:	103fdb1e 	bne	r2,zero,4000120 <__alt_data_end+0xfc000120>

  /*
   * Notify the operating system that interrupt processing is complete.
   */ 

  ALT_OS_INT_EXIT();
 40001b4:	0001883a 	nop
}
 40001b8:	0001883a 	nop
 40001bc:	e037883a 	mov	sp,fp
 40001c0:	dfc00117 	ldw	ra,4(sp)
 40001c4:	df000017 	ldw	fp,0(sp)
 40001c8:	dec00204 	addi	sp,sp,8
 40001cc:	f800283a 	ret

040001d0 <alt_instruction_exception_entry>:
 * that handler if it has been registered. Absent a handler, it will
 * break break or hang as discussed below.
 */
int 
alt_instruction_exception_entry (alt_u32 exception_pc)
{
 40001d0:	defffb04 	addi	sp,sp,-20
 40001d4:	dfc00415 	stw	ra,16(sp)
 40001d8:	df000315 	stw	fp,12(sp)
 40001dc:	df000304 	addi	fp,sp,12
 40001e0:	e13fff15 	stw	r4,-4(fp)
 * NIOS2_EXCEPTION_CAUSE_NOT_PRESENT. Your handling routine should
 * check the validity of the cause argument before proceeding.
 */
#ifdef NIOS2_HAS_EXTRA_EXCEPTION_INFO
  /* Get exception cause & "badaddr" */
  NIOS2_READ_EXCEPTION(cause);
 40001e4:	000531fa 	rdctl	r2,exception
 40001e8:	e0bffd15 	stw	r2,-12(fp)
  cause = ( (cause & NIOS2_EXCEPTION_REG_CAUSE_MASK) >>
 40001ec:	e0bffd17 	ldw	r2,-12(fp)
 40001f0:	10801f0c 	andi	r2,r2,124
 40001f4:	1004d0ba 	srli	r2,r2,2
 40001f8:	e0bffd15 	stw	r2,-12(fp)
              NIOS2_EXCEPTION_REG_CAUSE_OFST );

  NIOS2_READ_BADADDR(badaddr);
 40001fc:	0005333a 	rdctl	r2,badaddr
 4000200:	e0bffe15 	stw	r2,-8(fp)
#else
  cause = NIOS2_EXCEPTION_CAUSE_NOT_PRESENT;
  badaddr = 0;
#endif /* NIOS2_HAS_EXTRA_EXCEPTION_INFO */

  if(alt_instruction_exception_handler) {
 4000204:	d0a70a17 	ldw	r2,-25560(gp)
 4000208:	10000726 	beq	r2,zero,4000228 <alt_instruction_exception_entry+0x58>
     * Call handler. Its return value indicates whether the exception-causing
     * instruction should be re-issued. The code that called us,
     * alt_eceptions_entry.S, will look at this value and adjust the ea
     * register as necessary
     */
    return alt_instruction_exception_handler(cause, exception_pc, badaddr);
 400020c:	d0a70a17 	ldw	r2,-25560(gp)
 4000210:	e0fffd17 	ldw	r3,-12(fp)
 4000214:	e1bffe17 	ldw	r6,-8(fp)
 4000218:	e17fff17 	ldw	r5,-4(fp)
 400021c:	1809883a 	mov	r4,r3
 4000220:	103ee83a 	callr	r2
 4000224:	00000206 	br	4000230 <alt_instruction_exception_entry+0x60>
   *    (a peripheral which negates its interrupt output before its
   *    interrupt handler has been executed will cause spurious interrupts)
   */
  else {
#ifdef NIOS2_HAS_DEBUG_STUB
    NIOS2_BREAK();
 4000228:	003da03a 	break	0
      ;
#endif /* NIOS2_HAS_DEBUG_STUB */
  }

  /* We should not get here. Remove compiler warning. */
  return NIOS2_EXCEPTION_RETURN_REISSUE_INST;
 400022c:	0005883a 	mov	r2,zero
}
 4000230:	e037883a 	mov	sp,fp
 4000234:	dfc00117 	ldw	ra,4(sp)
 4000238:	df000017 	ldw	fp,0(sp)
 400023c:	dec00204 	addi	sp,sp,8
 4000240:	f800283a 	ret

Disassembly of section .text:

04000244 <_start>:

    /* Assume the data cache size is always a power of two. */
#if NIOS2_DCACHE_SIZE > 0x8000
    movhi r2, %hi(NIOS2_DCACHE_SIZE)
#else
    movui r2, NIOS2_DCACHE_SIZE
 4000244:	00820014 	movui	r2,2048
#endif

0:
    initd 0(r2)
 4000248:	10000033 	initd	0(r2)
#ifdef NIOS2_ECC_PRESENT
    addi r2, r2, -4
#else
    addi r2, r2, -NIOS2_DCACHE_LINE_SIZE
 400024c:	10bff804 	addi	r2,r2,-32
#endif
    bgt r2, zero, 0b
 4000250:	00bffd16 	blt	zero,r2,4000248 <__alt_data_end+0xfc000248>

    /*
     * Now that the caches are initialized, set up the stack pointer and global pointer.
     * The values provided by the linker are assumed to be correctly aligned.
     */
    movhi sp, %hi(__alt_stack_pointer)
 4000254:	06c20034 	movhi	sp,2048
    ori sp, sp, %lo(__alt_stack_pointer)
 4000258:	dec00014 	ori	sp,sp,0
    movhi gp, %hi(_gp)
 400025c:	06810074 	movhi	gp,1025
    ori gp, gp, %lo(_gp)
 4000260:	d6bd1514 	ori	gp,gp,62548
 */
#ifndef ALT_SIM_OPTIMIZE
    /* Log that the BSS is about to be cleared. */
    ALT_LOG_PUTS(alt_log_msg_bss)

    movhi r2, %hi(__bss_start)
 4000264:	00810074 	movhi	r2,1025
    ori r2, r2, %lo(__bss_start)
 4000268:	10a40c14 	ori	r2,r2,36912

    movhi r3, %hi(__bss_end)
 400026c:	00c10074 	movhi	r3,1025
    ori r3, r3, %lo(__bss_end)
 4000270:	18e4c614 	ori	r3,r3,37656

    beq r2, r3, 1f
 4000274:	10c00326 	beq	r2,r3,4000284 <_start+0x40>

0:
    stw zero, (r2)
 4000278:	10000015 	stw	zero,0(r2)
    addi r2, r2, 4
 400027c:	10800104 	addi	r2,r2,4
    bltu r2, r3, 0b
 4000280:	10fffd36 	bltu	r2,r3,4000278 <__alt_data_end+0xfc000278>
     * section aren't defined until alt_load() has been called).
     */
    mov   et, zero
#endif

    call alt_load
 4000284:	40108a80 	call	40108a8 <alt_load>

    /* Log that alt_main is about to be called. */
    ALT_LOG_PUTS(alt_log_msg_alt_main)

    /* Call the C entry point. It should never return. */
    call alt_main
 4000288:	4010a3c0 	call	4010a3c <alt_main>

0400028c <alt_after_alt_main>:

    /* Wait in infinite loop in case alt_main does return. */
alt_after_alt_main:
    br alt_after_alt_main
 400028c:	003fff06 	br	400028c <__alt_data_end+0xfc00028c>

04000290 <setLED>:
volatile int *PARAM = (int*)PARAM_BASE;



void setLED(int LED)
{
 4000290:	defffe04 	addi	sp,sp,-8
 4000294:	df000115 	stw	fp,4(sp)
 4000298:	df000104 	addi	fp,sp,4
 400029c:	e13fff15 	stw	r4,-4(fp)
	IOWR_ALTERA_AVALON_PIO_DATA(LEDS_PIO_BASE, (IORD_ALTERA_AVALON_PIO_DATA(LEDS_PIO_BASE) | (0x001 << LED)));
 40002a0:	00820034 	movhi	r2,2048
 40002a4:	10843c04 	addi	r2,r2,4336
 40002a8:	10c00037 	ldwio	r3,0(r2)
 40002ac:	01000044 	movi	r4,1
 40002b0:	e0bfff17 	ldw	r2,-4(fp)
 40002b4:	2084983a 	sll	r2,r4,r2
 40002b8:	1886b03a 	or	r3,r3,r2
 40002bc:	00820034 	movhi	r2,2048
 40002c0:	10843c04 	addi	r2,r2,4336
 40002c4:	10c00035 	stwio	r3,0(r2)
}
 40002c8:	0001883a 	nop
 40002cc:	e037883a 	mov	sp,fp
 40002d0:	df000017 	ldw	fp,0(sp)
 40002d4:	dec00104 	addi	sp,sp,4
 40002d8:	f800283a 	ret

040002dc <clearLED>:

void clearLED(int LED)
{
 40002dc:	defffe04 	addi	sp,sp,-8
 40002e0:	df000115 	stw	fp,4(sp)
 40002e4:	df000104 	addi	fp,sp,4
 40002e8:	e13fff15 	stw	r4,-4(fp)
	IOWR_ALTERA_AVALON_PIO_DATA(LEDS_PIO_BASE, (IORD_ALTERA_AVALON_PIO_DATA(LEDS_PIO_BASE) & ~(0x001 << LED)));
 40002ec:	00820034 	movhi	r2,2048
 40002f0:	10843c04 	addi	r2,r2,4336
 40002f4:	10c00037 	ldwio	r3,0(r2)
 40002f8:	01000044 	movi	r4,1
 40002fc:	e0bfff17 	ldw	r2,-4(fp)
 4000300:	2084983a 	sll	r2,r4,r2
 4000304:	0084303a 	nor	r2,zero,r2
 4000308:	1886703a 	and	r3,r3,r2
 400030c:	00820034 	movhi	r2,2048
 4000310:	10843c04 	addi	r2,r2,4336
 4000314:	10c00035 	stwio	r3,0(r2)

}
 4000318:	0001883a 	nop
 400031c:	e037883a 	mov	sp,fp
 4000320:	df000017 	ldw	fp,0(sp)
 4000324:	dec00104 	addi	sp,sp,4
 4000328:	f800283a 	ret

0400032c <printSignedHex0>:

void printSignedHex0(signed char value)
{
 400032c:	defffc04 	addi	sp,sp,-16
 4000330:	dfc00315 	stw	ra,12(sp)
 4000334:	df000215 	stw	fp,8(sp)
 4000338:	df000204 	addi	fp,sp,8
 400033c:	2005883a 	mov	r2,r4
 4000340:	e0bfff05 	stb	r2,-4(fp)
	BYTE tens = 0;
 4000344:	e03ffe05 	stb	zero,-8(fp)
	BYTE ones = 0;
 4000348:	e03ffe45 	stb	zero,-7(fp)
	WORD pio_val = IORD_ALTERA_AVALON_PIO_DATA(HEX_DIGITS_PIO_BASE);
 400034c:	00820034 	movhi	r2,2048
 4000350:	10849804 	addi	r2,r2,4704
 4000354:	10800037 	ldwio	r2,0(r2)
 4000358:	e0bffe8d 	sth	r2,-6(fp)
	if (value < 0)
 400035c:	e0bfff07 	ldb	r2,-4(fp)
 4000360:	1000060e 	bge	r2,zero,400037c <printSignedHex0+0x50>
	{
		setLED(11);
 4000364:	010002c4 	movi	r4,11
 4000368:	40002900 	call	4000290 <setLED>
		value = -value;
 400036c:	e0bfff03 	ldbu	r2,-4(fp)
 4000370:	0085c83a 	sub	r2,zero,r2
 4000374:	e0bfff05 	stb	r2,-4(fp)
 4000378:	00000206 	br	4000384 <printSignedHex0+0x58>
	}
	else
	{
		clearLED(11);
 400037c:	010002c4 	movi	r4,11
 4000380:	40002dc0 	call	40002dc <clearLED>
	}
	//handled hundreds
	if (value / 100)
 4000384:	e0bfff03 	ldbu	r2,-4(fp)
 4000388:	108018c4 	addi	r2,r2,99
 400038c:	10803fcc 	andi	r2,r2,255
 4000390:	108031f0 	cmpltui	r2,r2,199
 4000394:	1000031e 	bne	r2,zero,40003a4 <printSignedHex0+0x78>
		setLED(13);
 4000398:	01000344 	movi	r4,13
 400039c:	40002900 	call	4000290 <setLED>
 40003a0:	00000206 	br	40003ac <printSignedHex0+0x80>
	else
		clearLED(13);
 40003a4:	01000344 	movi	r4,13
 40003a8:	40002dc0 	call	40002dc <clearLED>

	value = value % 100;
 40003ac:	e0bfff07 	ldb	r2,-4(fp)
 40003b0:	01401904 	movi	r5,100
 40003b4:	1009883a 	mov	r4,r2
 40003b8:	400317c0 	call	400317c <__modsi3>
 40003bc:	e0bfff05 	stb	r2,-4(fp)
	tens = value / 10;
 40003c0:	e0bfff07 	ldb	r2,-4(fp)
 40003c4:	01400284 	movi	r5,10
 40003c8:	1009883a 	mov	r4,r2
 40003cc:	40030f80 	call	40030f8 <__divsi3>
 40003d0:	e0bffe05 	stb	r2,-8(fp)
	ones = value % 10;
 40003d4:	e0bfff07 	ldb	r2,-4(fp)
 40003d8:	01400284 	movi	r5,10
 40003dc:	1009883a 	mov	r4,r2
 40003e0:	400317c0 	call	400317c <__modsi3>
 40003e4:	e0bffe45 	stb	r2,-7(fp)

	pio_val &= 0x00FF;
 40003e8:	e0bffe8b 	ldhu	r2,-6(fp)
 40003ec:	10803fcc 	andi	r2,r2,255
 40003f0:	e0bffe8d 	sth	r2,-6(fp)
	pio_val |= (tens << 12);
 40003f4:	e0bffe03 	ldbu	r2,-8(fp)
 40003f8:	1004933a 	slli	r2,r2,12
 40003fc:	1007883a 	mov	r3,r2
 4000400:	e0bffe8b 	ldhu	r2,-6(fp)
 4000404:	1884b03a 	or	r2,r3,r2
 4000408:	e0bffe8d 	sth	r2,-6(fp)
	pio_val |= (ones << 8);
 400040c:	e0bffe43 	ldbu	r2,-7(fp)
 4000410:	1004923a 	slli	r2,r2,8
 4000414:	1007883a 	mov	r3,r2
 4000418:	e0bffe8b 	ldhu	r2,-6(fp)
 400041c:	1884b03a 	or	r2,r3,r2
 4000420:	e0bffe8d 	sth	r2,-6(fp)

	IOWR_ALTERA_AVALON_PIO_DATA(HEX_DIGITS_PIO_BASE, pio_val);
 4000424:	e0fffe8b 	ldhu	r3,-6(fp)
 4000428:	00820034 	movhi	r2,2048
 400042c:	10849804 	addi	r2,r2,4704
 4000430:	10c00035 	stwio	r3,0(r2)
}
 4000434:	0001883a 	nop
 4000438:	e037883a 	mov	sp,fp
 400043c:	dfc00117 	ldw	ra,4(sp)
 4000440:	df000017 	ldw	fp,0(sp)
 4000444:	dec00204 	addi	sp,sp,8
 4000448:	f800283a 	ret

0400044c <printSignedHex1>:

void printSignedHex1(signed char value)
{
 400044c:	defffb04 	addi	sp,sp,-20
 4000450:	dfc00415 	stw	ra,16(sp)
 4000454:	df000315 	stw	fp,12(sp)
 4000458:	df000304 	addi	fp,sp,12
 400045c:	2005883a 	mov	r2,r4
 4000460:	e0bfff05 	stb	r2,-4(fp)
	BYTE tens = 0;
 4000464:	e03ffd05 	stb	zero,-12(fp)
	BYTE ones = 0;
 4000468:	e03ffd45 	stb	zero,-11(fp)
	DWORD pio_val = IORD_ALTERA_AVALON_PIO_DATA(HEX_DIGITS_PIO_BASE);
 400046c:	00820034 	movhi	r2,2048
 4000470:	10849804 	addi	r2,r2,4704
 4000474:	10800037 	ldwio	r2,0(r2)
 4000478:	e0bffe15 	stw	r2,-8(fp)
	if (value < 0)
 400047c:	e0bfff07 	ldb	r2,-4(fp)
 4000480:	1000060e 	bge	r2,zero,400049c <printSignedHex1+0x50>
	{
		setLED(10);
 4000484:	01000284 	movi	r4,10
 4000488:	40002900 	call	4000290 <setLED>
		value = -value;
 400048c:	e0bfff03 	ldbu	r2,-4(fp)
 4000490:	0085c83a 	sub	r2,zero,r2
 4000494:	e0bfff05 	stb	r2,-4(fp)
 4000498:	00000206 	br	40004a4 <printSignedHex1+0x58>
	}
	else
	{
		clearLED(10);
 400049c:	01000284 	movi	r4,10
 40004a0:	40002dc0 	call	40002dc <clearLED>
	}
	//handled hundreds
	if (value / 100)
 40004a4:	e0bfff03 	ldbu	r2,-4(fp)
 40004a8:	108018c4 	addi	r2,r2,99
 40004ac:	10803fcc 	andi	r2,r2,255
 40004b0:	108031f0 	cmpltui	r2,r2,199
 40004b4:	1000031e 	bne	r2,zero,40004c4 <printSignedHex1+0x78>
		setLED(12);
 40004b8:	01000304 	movi	r4,12
 40004bc:	40002900 	call	4000290 <setLED>
 40004c0:	00000206 	br	40004cc <printSignedHex1+0x80>
	else
		clearLED(12);
 40004c4:	01000304 	movi	r4,12
 40004c8:	40002dc0 	call	40002dc <clearLED>

	value = value % 100;
 40004cc:	e0bfff07 	ldb	r2,-4(fp)
 40004d0:	01401904 	movi	r5,100
 40004d4:	1009883a 	mov	r4,r2
 40004d8:	400317c0 	call	400317c <__modsi3>
 40004dc:	e0bfff05 	stb	r2,-4(fp)
	tens = value / 10;
 40004e0:	e0bfff07 	ldb	r2,-4(fp)
 40004e4:	01400284 	movi	r5,10
 40004e8:	1009883a 	mov	r4,r2
 40004ec:	40030f80 	call	40030f8 <__divsi3>
 40004f0:	e0bffd05 	stb	r2,-12(fp)
	ones = value % 10;
 40004f4:	e0bfff07 	ldb	r2,-4(fp)
 40004f8:	01400284 	movi	r5,10
 40004fc:	1009883a 	mov	r4,r2
 4000500:	400317c0 	call	400317c <__modsi3>
 4000504:	e0bffd45 	stb	r2,-11(fp)
	tens = value / 10;
 4000508:	e0bfff07 	ldb	r2,-4(fp)
 400050c:	01400284 	movi	r5,10
 4000510:	1009883a 	mov	r4,r2
 4000514:	40030f80 	call	40030f8 <__divsi3>
 4000518:	e0bffd05 	stb	r2,-12(fp)
	ones = value % 10;
 400051c:	e0bfff07 	ldb	r2,-4(fp)
 4000520:	01400284 	movi	r5,10
 4000524:	1009883a 	mov	r4,r2
 4000528:	400317c0 	call	400317c <__modsi3>
 400052c:	e0bffd45 	stb	r2,-11(fp)

	pio_val &= 0xFF00;
 4000530:	e0bffe17 	ldw	r2,-8(fp)
 4000534:	10bfc00c 	andi	r2,r2,65280
 4000538:	e0bffe15 	stw	r2,-8(fp)
	pio_val |= (tens << 4);
 400053c:	e0bffd03 	ldbu	r2,-12(fp)
 4000540:	1004913a 	slli	r2,r2,4
 4000544:	1007883a 	mov	r3,r2
 4000548:	e0bffe17 	ldw	r2,-8(fp)
 400054c:	10c4b03a 	or	r2,r2,r3
 4000550:	e0bffe15 	stw	r2,-8(fp)
	pio_val |= (ones << 0);
 4000554:	e0bffd43 	ldbu	r2,-11(fp)
 4000558:	e0fffe17 	ldw	r3,-8(fp)
 400055c:	1884b03a 	or	r2,r3,r2
 4000560:	e0bffe15 	stw	r2,-8(fp)

	IOWR_ALTERA_AVALON_PIO_DATA(HEX_DIGITS_PIO_BASE, pio_val);
 4000564:	e0fffe17 	ldw	r3,-8(fp)
 4000568:	00820034 	movhi	r2,2048
 400056c:	10849804 	addi	r2,r2,4704
 4000570:	10c00035 	stwio	r3,0(r2)
}
 4000574:	0001883a 	nop
 4000578:	e037883a 	mov	sp,fp
 400057c:	dfc00117 	ldw	ra,4(sp)
 4000580:	df000017 	ldw	fp,0(sp)
 4000584:	dec00204 	addi	sp,sp,8
 4000588:	f800283a 	ret

0400058c <GetDriverandReport>:
extern HID_DEVICE hid_device;

static BYTE addr = 1; 				//hard-wired USB address
const char* const devclasses[] = { " Uninitialized", " HID Keyboard", " HID Mouse", " Mass storage" };

BYTE GetDriverandReport() {
 400058c:	defff604 	addi	sp,sp,-40
 4000590:	dfc00915 	stw	ra,36(sp)
 4000594:	df000815 	stw	fp,32(sp)
 4000598:	df000804 	addi	fp,sp,32
	BYTE i;
	BYTE rcode;
	BYTE device = 0xFFde;
 400059c:	00bff784 	movi	r2,-34
 40005a0:	e0bffd45 	stb	r2,-11(fp)
	BYTE tmpbyte;

	DEV_RECORD* tpl_ptr;
	printf("Reached USB_STATE_RUNNING (0x40)\n");
 40005a4:	01010074 	movhi	r4,1025
 40005a8:	21142704 	addi	r4,r4,20636
 40005ac:	40048b40 	call	40048b4 <puts>
	for (i = 1; i < USB_NUMDEVICES; i++) {
 40005b0:	00800044 	movi	r2,1
 40005b4:	e0bffd05 	stb	r2,-12(fp)
 40005b8:	00001f06 	br	4000638 <GetDriverandReport+0xac>
		tpl_ptr = GetDevtable(i);
 40005bc:	e0bffd03 	ldbu	r2,-12(fp)
 40005c0:	1009883a 	mov	r4,r2
 40005c4:	4002fdc0 	call	4002fdc <GetDevtable>
 40005c8:	e0bffe15 	stw	r2,-8(fp)
		if (tpl_ptr->epinfo != NULL) {
 40005cc:	e0bffe17 	ldw	r2,-8(fp)
 40005d0:	10800017 	ldw	r2,0(r2)
 40005d4:	10001526 	beq	r2,zero,400062c <GetDriverandReport+0xa0>
			printf("Device: %d", i);
 40005d8:	e0bffd03 	ldbu	r2,-12(fp)
 40005dc:	100b883a 	mov	r5,r2
 40005e0:	01010074 	movhi	r4,1025
 40005e4:	21143004 	addi	r4,r4,20672
 40005e8:	40047b80 	call	40047b8 <printf>
			printf("%s \n", devclasses[tpl_ptr->devclass]);
 40005ec:	e0bffe17 	ldw	r2,-8(fp)
 40005f0:	10800103 	ldbu	r2,4(r2)
 40005f4:	10c03fcc 	andi	r3,r2,255
 40005f8:	00810074 	movhi	r2,1025
 40005fc:	10942304 	addi	r2,r2,20620
 4000600:	18c7883a 	add	r3,r3,r3
 4000604:	18c7883a 	add	r3,r3,r3
 4000608:	10c5883a 	add	r2,r2,r3
 400060c:	10800017 	ldw	r2,0(r2)
 4000610:	100b883a 	mov	r5,r2
 4000614:	01010074 	movhi	r4,1025
 4000618:	21143304 	addi	r4,r4,20684
 400061c:	40047b80 	call	40047b8 <printf>
			device = tpl_ptr->devclass;
 4000620:	e0bffe17 	ldw	r2,-8(fp)
 4000624:	10800103 	ldbu	r2,4(r2)
 4000628:	e0bffd45 	stb	r2,-11(fp)
	BYTE device = 0xFFde;
	BYTE tmpbyte;

	DEV_RECORD* tpl_ptr;
	printf("Reached USB_STATE_RUNNING (0x40)\n");
	for (i = 1; i < USB_NUMDEVICES; i++) {
 400062c:	e0bffd03 	ldbu	r2,-12(fp)
 4000630:	10800044 	addi	r2,r2,1
 4000634:	e0bffd05 	stb	r2,-12(fp)
 4000638:	e0bffd03 	ldbu	r2,-12(fp)
 400063c:	10800230 	cmpltui	r2,r2,8
 4000640:	103fde1e 	bne	r2,zero,40005bc <__alt_data_end+0xfc0005bc>
			printf("%s \n", devclasses[tpl_ptr->devclass]);
			device = tpl_ptr->devclass;
		}
	}
	//Query rate and protocol
	rcode = XferGetIdle(addr, 0, hid_device.interface, 0, &tmpbyte);
 4000644:	d0a00203 	ldbu	r2,-32760(gp)
 4000648:	11003fcc 	andi	r4,r2,255
 400064c:	d0a6f743 	ldbu	r2,-25635(gp)
 4000650:	10803fcc 	andi	r2,r2,255
 4000654:	e0ffff44 	addi	r3,fp,-3
 4000658:	d8c00415 	stw	r3,16(sp)
 400065c:	00c00044 	movi	r3,1
 4000660:	d8c00315 	stw	r3,12(sp)
 4000664:	d8800215 	stw	r2,8(sp)
 4000668:	d8000115 	stw	zero,4(sp)
 400066c:	d8000015 	stw	zero,0(sp)
 4000670:	01c00084 	movi	r7,2
 4000674:	01802844 	movi	r6,161
 4000678:	000b883a 	mov	r5,zero
 400067c:	40022380 	call	4002238 <XferCtrlReq>
 4000680:	e0bfff05 	stb	r2,-4(fp)
	if (rcode) {   //error handling
 4000684:	e0bfff03 	ldbu	r2,-4(fp)
 4000688:	10000926 	beq	r2,zero,40006b0 <GetDriverandReport+0x124>
		printf("GetIdle Error. Error code: ");
 400068c:	01010074 	movhi	r4,1025
 4000690:	21143504 	addi	r4,r4,20692
 4000694:	40047b80 	call	40047b8 <printf>
		printf("%x \n", rcode);
 4000698:	e0bfff03 	ldbu	r2,-4(fp)
 400069c:	100b883a 	mov	r5,r2
 40006a0:	01010074 	movhi	r4,1025
 40006a4:	21143c04 	addi	r4,r4,20720
 40006a8:	40047b80 	call	40047b8 <printf>
 40006ac:	00000906 	br	40006d4 <GetDriverandReport+0x148>
	} else {
		printf("Update rate: ");
 40006b0:	01010074 	movhi	r4,1025
 40006b4:	21143e04 	addi	r4,r4,20728
 40006b8:	40047b80 	call	40047b8 <printf>
		printf("%x \n", tmpbyte);
 40006bc:	e0bfff43 	ldbu	r2,-3(fp)
 40006c0:	10803fcc 	andi	r2,r2,255
 40006c4:	100b883a 	mov	r5,r2
 40006c8:	01010074 	movhi	r4,1025
 40006cc:	21143c04 	addi	r4,r4,20720
 40006d0:	40047b80 	call	40047b8 <printf>
	}
	printf("Protocol: ");
 40006d4:	01010074 	movhi	r4,1025
 40006d8:	21144204 	addi	r4,r4,20744
 40006dc:	40047b80 	call	40047b8 <printf>
	rcode = XferGetProto(addr, 0, hid_device.interface, &tmpbyte);
 40006e0:	d0a00203 	ldbu	r2,-32760(gp)
 40006e4:	11003fcc 	andi	r4,r2,255
 40006e8:	d0a6f743 	ldbu	r2,-25635(gp)
 40006ec:	10803fcc 	andi	r2,r2,255
 40006f0:	e0ffff44 	addi	r3,fp,-3
 40006f4:	d8c00415 	stw	r3,16(sp)
 40006f8:	00c00044 	movi	r3,1
 40006fc:	d8c00315 	stw	r3,12(sp)
 4000700:	d8800215 	stw	r2,8(sp)
 4000704:	d8000115 	stw	zero,4(sp)
 4000708:	d8000015 	stw	zero,0(sp)
 400070c:	01c000c4 	movi	r7,3
 4000710:	01802844 	movi	r6,161
 4000714:	000b883a 	mov	r5,zero
 4000718:	40022380 	call	4002238 <XferCtrlReq>
 400071c:	e0bfff05 	stb	r2,-4(fp)
	if (rcode) {   //error handling
 4000720:	e0bfff03 	ldbu	r2,-4(fp)
 4000724:	10000926 	beq	r2,zero,400074c <GetDriverandReport+0x1c0>
		printf("GetProto Error. Error code ");
 4000728:	01010074 	movhi	r4,1025
 400072c:	21144504 	addi	r4,r4,20756
 4000730:	40047b80 	call	40047b8 <printf>
		printf("%x \n", rcode);
 4000734:	e0bfff03 	ldbu	r2,-4(fp)
 4000738:	100b883a 	mov	r5,r2
 400073c:	01010074 	movhi	r4,1025
 4000740:	21143c04 	addi	r4,r4,20720
 4000744:	40047b80 	call	40047b8 <printf>
 4000748:	00000606 	br	4000764 <GetDriverandReport+0x1d8>
	} else {
		printf("%d \n", tmpbyte);
 400074c:	e0bfff43 	ldbu	r2,-3(fp)
 4000750:	10803fcc 	andi	r2,r2,255
 4000754:	100b883a 	mov	r5,r2
 4000758:	01010074 	movhi	r4,1025
 400075c:	21144c04 	addi	r4,r4,20784
 4000760:	40047b80 	call	40047b8 <printf>
	}
	return device;
 4000764:	e0bffd43 	ldbu	r2,-11(fp)
}
 4000768:	e037883a 	mov	sp,fp
 400076c:	dfc00117 	ldw	ra,4(sp)
 4000770:	df000017 	ldw	fp,0(sp)
 4000774:	dec00204 	addi	sp,sp,8
 4000778:	f800283a 	ret

0400077c <setKeycode>:

void setKeycode(WORD keycode, BYTE num)
{
 400077c:	defffd04 	addi	sp,sp,-12
 4000780:	df000215 	stw	fp,8(sp)
 4000784:	df000204 	addi	fp,sp,8
 4000788:	2007883a 	mov	r3,r4
 400078c:	2805883a 	mov	r2,r5
 4000790:	e0fffe0d 	sth	r3,-8(fp)
 4000794:	e0bfff05 	stb	r2,-4(fp)
	if(num == 0){
 4000798:	e0bfff03 	ldbu	r2,-4(fp)
 400079c:	1000051e 	bne	r2,zero,40007b4 <setKeycode+0x38>
		IOWR_ALTERA_AVALON_PIO_DATA(KEYCODE0_BASE, keycode);
 40007a0:	e0fffe0b 	ldhu	r3,-8(fp)
 40007a4:	00820034 	movhi	r2,2048
 40007a8:	10849004 	addi	r2,r2,4672
 40007ac:	10c00035 	stwio	r3,0(r2)
			IOWR_ALTERA_AVALON_PIO_DATA(KEYCODE1_BASE, keycode);
	}
	else if(num == 2){
		IOWR_ALTERA_AVALON_PIO_DATA(KEYCODE2_BASE, keycode);
	}
}
 40007b0:	00000d06 	br	40007e8 <setKeycode+0x6c>
void setKeycode(WORD keycode, BYTE num)
{
	if(num == 0){
		IOWR_ALTERA_AVALON_PIO_DATA(KEYCODE0_BASE, keycode);
	}
	else if(num == 1){
 40007b4:	e0bfff03 	ldbu	r2,-4(fp)
 40007b8:	10800058 	cmpnei	r2,r2,1
 40007bc:	1000041e 	bne	r2,zero,40007d0 <setKeycode+0x54>
			IOWR_ALTERA_AVALON_PIO_DATA(KEYCODE1_BASE, keycode);
 40007c0:	e0bffe0b 	ldhu	r2,-8(fp)
 40007c4:	0007883a 	mov	r3,zero
 40007c8:	18800035 	stwio	r2,0(r3)
	}
	else if(num == 2){
		IOWR_ALTERA_AVALON_PIO_DATA(KEYCODE2_BASE, keycode);
	}
}
 40007cc:	00000606 	br	40007e8 <setKeycode+0x6c>
		IOWR_ALTERA_AVALON_PIO_DATA(KEYCODE0_BASE, keycode);
	}
	else if(num == 1){
			IOWR_ALTERA_AVALON_PIO_DATA(KEYCODE1_BASE, keycode);
	}
	else if(num == 2){
 40007d0:	e0bfff03 	ldbu	r2,-4(fp)
 40007d4:	10800098 	cmpnei	r2,r2,2
 40007d8:	1000031e 	bne	r2,zero,40007e8 <setKeycode+0x6c>
		IOWR_ALTERA_AVALON_PIO_DATA(KEYCODE2_BASE, keycode);
 40007dc:	e0fffe0b 	ldhu	r3,-8(fp)
 40007e0:	00800404 	movi	r2,16
 40007e4:	10c00035 	stwio	r3,0(r2)
	}
}
 40007e8:	0001883a 	nop
 40007ec:	e037883a 	mov	sp,fp
 40007f0:	df000017 	ldw	fp,0(sp)
 40007f4:	dec00104 	addi	sp,sp,4
 40007f8:	f800283a 	ret

040007fc <main>:

int main()
{
 40007fc:	deff7104 	addi	sp,sp,-572
 4000800:	dfc08e15 	stw	ra,568(sp)
 4000804:	df008d15 	stw	fp,564(sp)
 4000808:	df008d04 	addi	fp,sp,564
	ALT_AVALON_I2C_DEV_t *i2c_dev; //pointer to instance structure
	//get a pointer to the Avalon i2c instance
	i2c_dev = alt_avalon_i2c_open("/dev/i2c_0"); //this has to reflect Platform Designer name
 400080c:	01010074 	movhi	r4,1025
 4000810:	21144e04 	addi	r4,r4,20792
 4000814:	40114700 	call	4011470 <alt_avalon_i2c_open>
 4000818:	e0bf7915 	stw	r2,-540(fp)
	if (NULL==i2c_dev)						     //check the BSP if unsure
 400081c:	e0bf7917 	ldw	r2,-540(fp)
 4000820:	1000051e 	bne	r2,zero,4000838 <main+0x3c>
	{
		printf("Error: Cannot find /dev/i2c_0\n");
 4000824:	01010074 	movhi	r4,1025
 4000828:	21145104 	addi	r4,r4,20804
 400082c:	40048b40 	call	40048b4 <puts>
		return 1;
 4000830:	00800044 	movi	r2,1
 4000834:	0001ea06 	br	4000fe0 <main+0x7e4>
	}
	printf ("I2C Test Program\n");
 4000838:	01010074 	movhi	r4,1025
 400083c:	21145904 	addi	r4,r4,20836
 4000840:	40048b40 	call	40048b4 <puts>

	alt_avalon_i2c_master_target_set(i2c_dev,0xA); //CODEC at address 0b0001010
 4000844:	01400284 	movi	r5,10
 4000848:	e13f7917 	ldw	r4,-540(fp)
 400084c:	4011c400 	call	4011c40 <alt_avalon_i2c_master_target_set>
	//print device ID (verify I2C is working)
	printf( "Device ID register: %x\n", SGTL5000_Reg_Rd (i2c_dev, SGTL5000_CHIP_ID));
 4000850:	000b883a 	mov	r5,zero
 4000854:	e13f7917 	ldw	r4,-540(fp)
 4000858:	4000ff40 	call	4000ff4 <SGTL5000_Reg_Rd>
 400085c:	10bfffcc 	andi	r2,r2,65535
 4000860:	100b883a 	mov	r5,r2
 4000864:	01010074 	movhi	r4,1025
 4000868:	21145e04 	addi	r4,r4,20856
 400086c:	40047b80 	call	40047b8 <printf>

	//configure PLL, input frequency is 12.5 MHz, output frequency is 180.6336 MHz if 44.1kHz is desired
	//or 196.608 MHz else
	BYTE int_divisor = 180633600/12500000;
 4000870:	00800384 	movi	r2,14
 4000874:	e0bf7a05 	stb	r2,-536(fp)
	WORD frac_divisor = (WORD)(((180633600.0f/12500000.0f) - (float)int_divisor) * 2048.0f);
 4000878:	e0bf7a03 	ldbu	r2,-536(fp)
 400087c:	1009883a 	mov	r4,r2
 4000880:	4003cb80 	call	4003cb8 <__floatunsisf>
 4000884:	1007883a 	mov	r3,r2
 4000888:	180b883a 	mov	r5,r3
 400088c:	011059f4 	movhi	r4,16743
 4000890:	210d8144 	addi	r4,r4,13829
 4000894:	40037640 	call	4003764 <__subsf3>
 4000898:	1007883a 	mov	r3,r2
 400089c:	1805883a 	mov	r2,r3
 40008a0:	01514034 	movhi	r5,17664
 40008a4:	1009883a 	mov	r4,r2
 40008a8:	40033680 	call	4003368 <__mulsf3>
 40008ac:	1007883a 	mov	r3,r2
 40008b0:	1805883a 	mov	r2,r3
 40008b4:	1009883a 	mov	r4,r2
 40008b8:	40030980 	call	4003098 <__fixunssfsi>
 40008bc:	e0bf7a8d 	sth	r2,-534(fp)
	printf( "Programming PLL with integer divisor: %d, fractional divisor %d\n", int_divisor, frac_divisor);
 40008c0:	e0bf7a03 	ldbu	r2,-536(fp)
 40008c4:	e0ff7a8b 	ldhu	r3,-534(fp)
 40008c8:	180d883a 	mov	r6,r3
 40008cc:	100b883a 	mov	r5,r2
 40008d0:	01010074 	movhi	r4,1025
 40008d4:	21146404 	addi	r4,r4,20880
 40008d8:	40047b80 	call	40047b8 <printf>
	SGTL5000_Reg_Wr(i2c_dev, SGTL5000_CHIP_PLL_CTRL, \
				int_divisor << SGTL5000_PLL_INT_DIV_SHIFT|
 40008dc:	e0bf7a03 	ldbu	r2,-536(fp)
 40008e0:	100492fa 	slli	r2,r2,11
	//configure PLL, input frequency is 12.5 MHz, output frequency is 180.6336 MHz if 44.1kHz is desired
	//or 196.608 MHz else
	BYTE int_divisor = 180633600/12500000;
	WORD frac_divisor = (WORD)(((180633600.0f/12500000.0f) - (float)int_divisor) * 2048.0f);
	printf( "Programming PLL with integer divisor: %d, fractional divisor %d\n", int_divisor, frac_divisor);
	SGTL5000_Reg_Wr(i2c_dev, SGTL5000_CHIP_PLL_CTRL, \
 40008e4:	1007883a 	mov	r3,r2
 40008e8:	e0bf7a8b 	ldhu	r2,-534(fp)
 40008ec:	1884b03a 	or	r2,r3,r2
 40008f0:	10bfffcc 	andi	r2,r2,65535
 40008f4:	100d883a 	mov	r6,r2
 40008f8:	01400c84 	movi	r5,50
 40008fc:	e13f7917 	ldw	r4,-540(fp)
 4000900:	40010a80 	call	40010a8 <SGTL5000_Reg_Wr>
				int_divisor << SGTL5000_PLL_INT_DIV_SHIFT|
				frac_divisor << SGTL5000_PLL_FRAC_DIV_SHIFT);
	printf( "CHIP_PLL_CTRL register: %x\n", SGTL5000_Reg_Rd (i2c_dev, SGTL5000_CHIP_PLL_CTRL));
 4000904:	01400c84 	movi	r5,50
 4000908:	e13f7917 	ldw	r4,-540(fp)
 400090c:	4000ff40 	call	4000ff4 <SGTL5000_Reg_Rd>
 4000910:	10bfffcc 	andi	r2,r2,65535
 4000914:	100b883a 	mov	r5,r2
 4000918:	01010074 	movhi	r4,1025
 400091c:	21147504 	addi	r4,r4,20948
 4000920:	40047b80 	call	40047b8 <printf>

	//configure power control, disable internal VDDD, VDDIO=3.3V, VDDA=VDDD=1.8V (ext)
	SGTL5000_Reg_Wr(i2c_dev, SGTL5000_CHIP_ANA_POWER, \
 4000924:	01917f84 	movi	r6,17918
 4000928:	01400c04 	movi	r5,48
 400092c:	e13f7917 	ldw	r4,-540(fp)
 4000930:	40010a80 	call	40010a8 <SGTL5000_Reg_Wr>
			SGTL5000_REFTOP_POWERUP|
			SGTL5000_HP_POWERUP|
			SGTL5000_DAC_POWERUP|
			SGTL5000_CAPLESS_HP_POWERUP|
			SGTL5000_ADC_POWERUP);
	printf( "CHIP_ANA_POWER register: %x\n", SGTL5000_Reg_Rd (i2c_dev, SGTL5000_CHIP_ANA_POWER));
 4000934:	01400c04 	movi	r5,48
 4000938:	e13f7917 	ldw	r4,-540(fp)
 400093c:	4000ff40 	call	4000ff4 <SGTL5000_Reg_Rd>
 4000940:	10bfffcc 	andi	r2,r2,65535
 4000944:	100b883a 	mov	r5,r2
 4000948:	01010074 	movhi	r4,1025
 400094c:	21147c04 	addi	r4,r4,20976
 4000950:	40047b80 	call	40047b8 <printf>

	//select internal ground bias to .9V (1.8V/2)
	SGTL5000_Reg_Wr(i2c_dev, SGTL5000_CHIP_REF_CTRL, 0x004E);
 4000954:	01801384 	movi	r6,78
 4000958:	01400a04 	movi	r5,40
 400095c:	e13f7917 	ldw	r4,-540(fp)
 4000960:	40010a80 	call	40010a8 <SGTL5000_Reg_Wr>
	printf( "CHIP_REF_CTRL register: %x\n", SGTL5000_Reg_Rd (i2c_dev, SGTL5000_CHIP_REF_CTRL));
 4000964:	01400a04 	movi	r5,40
 4000968:	e13f7917 	ldw	r4,-540(fp)
 400096c:	4000ff40 	call	4000ff4 <SGTL5000_Reg_Rd>
 4000970:	10bfffcc 	andi	r2,r2,65535
 4000974:	100b883a 	mov	r5,r2
 4000978:	01010074 	movhi	r4,1025
 400097c:	21148404 	addi	r4,r4,21008
 4000980:	40047b80 	call	40047b8 <printf>

	//enable core modules
	SGTL5000_Reg_Wr(i2c_dev, SGTL5000_CHIP_DIG_POWER,\
 4000984:	018018c4 	movi	r6,99
 4000988:	01400084 	movi	r5,2
 400098c:	e13f7917 	ldw	r4,-540(fp)
 4000990:	40010a80 	call	40010a8 <SGTL5000_Reg_Wr>
			SGTL5000_ADC_EN|
			SGTL5000_DAC_EN|
			//SGTL5000_DAP_POWERUP| //disable digital audio processor in CODEC
			SGTL5000_I2S_OUT_POWERUP|
			SGTL5000_I2S_IN_POWERUP);
	printf( "CHIP_DIG_POWER register: %x\n", SGTL5000_Reg_Rd (i2c_dev, SGTL5000_CHIP_DIG_POWER));
 4000994:	01400084 	movi	r5,2
 4000998:	e13f7917 	ldw	r4,-540(fp)
 400099c:	4000ff40 	call	4000ff4 <SGTL5000_Reg_Rd>
 40009a0:	10bfffcc 	andi	r2,r2,65535
 40009a4:	100b883a 	mov	r5,r2
 40009a8:	01010074 	movhi	r4,1025
 40009ac:	21148b04 	addi	r4,r4,21036
 40009b0:	40047b80 	call	40047b8 <printf>


	//MCLK is 12.5 MHz, configure clocks to use PLL
	SGTL5000_Reg_Wr(i2c_dev, SGTL5000_CHIP_CLK_CTRL, \
 40009b4:	018001c4 	movi	r6,7
 40009b8:	01400104 	movi	r5,4
 40009bc:	e13f7917 	ldw	r4,-540(fp)
 40009c0:	40010a80 	call	40010a8 <SGTL5000_Reg_Wr>
			SGTL5000_SYS_FS_44_1k << SGTL5000_SYS_FS_SHIFT |
			SGTL5000_MCLK_FREQ_PLL << SGTL5000_MCLK_FREQ_SHIFT);
	printf( "CHIP_CLK_CTRL register: %x\n", SGTL5000_Reg_Rd (i2c_dev, SGTL5000_CHIP_CLK_CTRL));
 40009c4:	01400104 	movi	r5,4
 40009c8:	e13f7917 	ldw	r4,-540(fp)
 40009cc:	4000ff40 	call	4000ff4 <SGTL5000_Reg_Rd>
 40009d0:	10bfffcc 	andi	r2,r2,65535
 40009d4:	100b883a 	mov	r5,r2
 40009d8:	01010074 	movhi	r4,1025
 40009dc:	21149304 	addi	r4,r4,21068
 40009e0:	40047b80 	call	40047b8 <printf>

	//Set as I2S master
	SGTL5000_Reg_Wr(i2c_dev, SGTL5000_CHIP_I2S_CTRL, SGTL5000_I2S_MASTER);
 40009e4:	01802004 	movi	r6,128
 40009e8:	01400184 	movi	r5,6
 40009ec:	e13f7917 	ldw	r4,-540(fp)
 40009f0:	40010a80 	call	40010a8 <SGTL5000_Reg_Wr>
	printf( "CHIP_I2S_CTRL register: %x\n", SGTL5000_Reg_Rd (i2c_dev, SGTL5000_CHIP_I2S_CTRL));
 40009f4:	01400184 	movi	r5,6
 40009f8:	e13f7917 	ldw	r4,-540(fp)
 40009fc:	4000ff40 	call	4000ff4 <SGTL5000_Reg_Rd>
 4000a00:	10bfffcc 	andi	r2,r2,65535
 4000a04:	100b883a 	mov	r5,r2
 4000a08:	01010074 	movhi	r4,1025
 4000a0c:	21149a04 	addi	r4,r4,21096
 4000a10:	40047b80 	call	40047b8 <printf>

	//ADC input from Line
	SGTL5000_Reg_Wr(i2c_dev, SGTL5000_CHIP_ANA_CTRL, \
 4000a14:	01800104 	movi	r6,4
 4000a18:	01400904 	movi	r5,36
 4000a1c:	e13f7917 	ldw	r4,-540(fp)
 4000a20:	40010a80 	call	40010a8 <SGTL5000_Reg_Wr>
			SGTL5000_ADC_SEL_LINE_IN << SGTL5000_ADC_SEL_SHIFT);
	printf( "CHIP_ANA_CTRL register: %x\n", SGTL5000_Reg_Rd (i2c_dev, SGTL5000_CHIP_ANA_CTRL));
 4000a24:	01400904 	movi	r5,36
 4000a28:	e13f7917 	ldw	r4,-540(fp)
 4000a2c:	4000ff40 	call	4000ff4 <SGTL5000_Reg_Rd>
 4000a30:	10bfffcc 	andi	r2,r2,65535
 4000a34:	100b883a 	mov	r5,r2
 4000a38:	01010074 	movhi	r4,1025
 4000a3c:	2114a104 	addi	r4,r4,21124
 4000a40:	40047b80 	call	40047b8 <printf>

	//ADC -> I2S out, I2S in -> DAC
	SGTL5000_Reg_Wr(i2c_dev, SGTL5000_CHIP_SSS_CTRL, \
 4000a44:	01800404 	movi	r6,16
 4000a48:	01400284 	movi	r5,10
 4000a4c:	e13f7917 	ldw	r4,-540(fp)
 4000a50:	40010a80 	call	40010a8 <SGTL5000_Reg_Wr>
			SGTL5000_DAC_SEL_I2S_IN << SGTL5000_DAC_SEL_SHIFT |
			SGTL5000_I2S_OUT_SEL_ADC << SGTL5000_I2S_OUT_SEL_SHIFT);
	printf( "CHIP_SSS_CTRL register: %x\n", SGTL5000_Reg_Rd (i2c_dev, SGTL5000_CHIP_SSS_CTRL));
 4000a54:	01400284 	movi	r5,10
 4000a58:	e13f7917 	ldw	r4,-540(fp)
 4000a5c:	4000ff40 	call	4000ff4 <SGTL5000_Reg_Rd>
 4000a60:	10bfffcc 	andi	r2,r2,65535
 4000a64:	100b883a 	mov	r5,r2
 4000a68:	01010074 	movhi	r4,1025
 4000a6c:	2114a804 	addi	r4,r4,21152
 4000a70:	40047b80 	call	40047b8 <printf>

	printf( "CHIP_ANA_CTRL register: %x\n", SGTL5000_Reg_Rd (i2c_dev, SGTL5000_CHIP_ANA_CTRL));
 4000a74:	01400904 	movi	r5,36
 4000a78:	e13f7917 	ldw	r4,-540(fp)
 4000a7c:	4000ff40 	call	4000ff4 <SGTL5000_Reg_Rd>
 4000a80:	10bfffcc 	andi	r2,r2,65535
 4000a84:	100b883a 	mov	r5,r2
 4000a88:	01010074 	movhi	r4,1025
 4000a8c:	2114a104 	addi	r4,r4,21124
 4000a90:	40047b80 	call	40047b8 <printf>

	//ADC -> I2S out, I2S in -> DAC
	SGTL5000_Reg_Wr(i2c_dev, SGTL5000_CHIP_ADCDAC_CTRL, 0x0000);
 4000a94:	000d883a 	mov	r6,zero
 4000a98:	01400384 	movi	r5,14
 4000a9c:	e13f7917 	ldw	r4,-540(fp)
 4000aa0:	40010a80 	call	40010a8 <SGTL5000_Reg_Wr>
	printf( "CHIP_ADCDAC_CTRL register: %x\n", SGTL5000_Reg_Rd (i2c_dev, SGTL5000_CHIP_ADCDAC_CTRL));
 4000aa4:	01400384 	movi	r5,14
 4000aa8:	e13f7917 	ldw	r4,-540(fp)
 4000aac:	4000ff40 	call	4000ff4 <SGTL5000_Reg_Rd>
 4000ab0:	10bfffcc 	andi	r2,r2,65535
 4000ab4:	100b883a 	mov	r5,r2
 4000ab8:	01010074 	movhi	r4,1025
 4000abc:	2114af04 	addi	r4,r4,21180
 4000ac0:	40047b80 	call	40047b8 <printf>
	printf( "CHIP_PAD_STRENGTH register: %x\n", SGTL5000_Reg_Rd (i2c_dev, SGTL5000_CHIP_PAD_STRENGTH));
 4000ac4:	01400504 	movi	r5,20
 4000ac8:	e13f7917 	ldw	r4,-540(fp)
 4000acc:	4000ff40 	call	4000ff4 <SGTL5000_Reg_Rd>
 4000ad0:	10bfffcc 	andi	r2,r2,65535
 4000ad4:	100b883a 	mov	r5,r2
 4000ad8:	01010074 	movhi	r4,1025
 4000adc:	2114b704 	addi	r4,r4,21212
 4000ae0:	40047b80 	call	40047b8 <printf>

	//Keyboard Section
	BYTE rcode;
	BOOT_MOUSE_REPORT buf;		//USB mouse report
	BOOT_KBD_REPORT kbdbuf;
	BYTE keycodeOrder[6] = {0, 0, 0, 0, 0, 0};
 4000ae4:	e03f7fc5 	stb	zero,-513(fp)
 4000ae8:	e03f8005 	stb	zero,-512(fp)
 4000aec:	e03f8045 	stb	zero,-511(fp)
 4000af0:	e03f8085 	stb	zero,-510(fp)
 4000af4:	e03f80c5 	stb	zero,-509(fp)
 4000af8:	e03f8105 	stb	zero,-508(fp)
	BYTE contains;
	int param[14] = {0,0,0,0,0,0,0,0,0,0,0,0,0, 0};
 4000afc:	e03f8215 	stw	zero,-504(fp)
 4000b00:	e03f8315 	stw	zero,-500(fp)
 4000b04:	e03f8415 	stw	zero,-496(fp)
 4000b08:	e03f8515 	stw	zero,-492(fp)
 4000b0c:	e03f8615 	stw	zero,-488(fp)
 4000b10:	e03f8715 	stw	zero,-484(fp)
 4000b14:	e03f8815 	stw	zero,-480(fp)
 4000b18:	e03f8915 	stw	zero,-476(fp)
 4000b1c:	e03f8a15 	stw	zero,-472(fp)
 4000b20:	e03f8b15 	stw	zero,-468(fp)
 4000b24:	e03f8c15 	stw	zero,-464(fp)
 4000b28:	e03f8d15 	stw	zero,-460(fp)
 4000b2c:	e03f8e15 	stw	zero,-456(fp)
 4000b30:	e03f8f15 	stw	zero,-452(fp)
	int dummy[14];
	short int paramprev = 0;
 4000b34:	e03f7b0d 	sth	zero,-532(fp)
	char paramnames[13][30] =
 4000b38:	00810074 	movhi	r2,1025
 4000b3c:	1094e204 	addi	r2,r2,21384
 4000b40:	e0ff9e04 	addi	r3,fp,-392
 4000b44:	1009883a 	mov	r4,r2
 4000b48:	00806184 	movi	r2,390
 4000b4c:	100d883a 	mov	r6,r2
 4000b50:	200b883a 	mov	r5,r4
 4000b54:	1809883a 	mov	r4,r3
 4000b58:	40046400 	call	4004640 <memcpy>
	"Operator 0 Fine Tune", "Operator 1 Fine Tune", "Operator 2 Fine Tune",
	"Operator 0 Envelope", "Operator 1 Envelope", "Operator 2 Envelope",
	"Operator 0 Scaling", "Operator 1 Scaling", "Operator 2 Scaling"};


	BYTE runningdebugflag = 0;//flag to dump out a bunch of information when we first get to USB_STATE_RUNNING
 4000b5c:	e03f7345 	stb	zero,-563(fp)
	BYTE errorflag = 0; //flag once we get an error device so we don't keep dumping out state info
 4000b60:	e03f7385 	stb	zero,-562(fp)
	BYTE device;
	WORD keycode;

	printf("initializing MAX3421E...\n");
 4000b64:	01010074 	movhi	r4,1025
 4000b68:	2114bf04 	addi	r4,r4,21244
 4000b6c:	40048b40 	call	40048b4 <puts>
	MAX3421E_init();
 4000b70:	40020380 	call	4002038 <MAX3421E_init>
	printf("initializing USB...\n");
 4000b74:	01010074 	movhi	r4,1025
 4000b78:	2114c604 	addi	r4,r4,21272
 4000b7c:	40048b40 	call	40048b4 <puts>
	USB_init();
 4000b80:	40027d40 	call	40027d4 <USB_init>



	while (1) {
		//printf(".");
		MAX3421E_Task();
 4000b84:	40020cc0 	call	40020cc <MAX3421E_Task>
		USB_Task();
 4000b88:	400286c0 	call	400286c <USB_Task>
		//usleep (500000);
		if (GetUsbTaskState() == USB_STATE_RUNNING) {
 4000b8c:	4002fbc0 	call	4002fbc <GetUsbTaskState>
 4000b90:	10803fcc 	andi	r2,r2,255
 4000b94:	10801018 	cmpnei	r2,r2,64
 4000b98:	103ffa1e 	bne	r2,zero,4000b84 <__alt_data_end+0xfc000b84>
			if (!runningdebugflag) {
 4000b9c:	e0bf7343 	ldbu	r2,-563(fp)
 4000ba0:	1000071e 	bne	r2,zero,4000bc0 <main+0x3c4>
				runningdebugflag = 1;
 4000ba4:	00800044 	movi	r2,1
 4000ba8:	e0bf7345 	stb	r2,-563(fp)
				setLED(9);
 4000bac:	01000244 	movi	r4,9
 4000bb0:	40002900 	call	4000290 <setLED>
				device = GetDriverandReport();
 4000bb4:	400058c0 	call	400058c <GetDriverandReport>
 4000bb8:	e0bf73c5 	stb	r2,-561(fp)
 4000bbc:	003ff106 	br	4000b84 <__alt_data_end+0xfc000b84>
			} else if (device == 1) {
 4000bc0:	e0bf73c3 	ldbu	r2,-561(fp)
 4000bc4:	10800058 	cmpnei	r2,r2,1
 4000bc8:	1000de1e 	bne	r2,zero,4000f44 <main+0x748>
				//run keyboard debug polling
				rcode = kbdPoll(&kbdbuf);
 4000bcc:	e0bf7dc4 	addi	r2,fp,-521
 4000bd0:	1009883a 	mov	r4,r2
 4000bd4:	4001a200 	call	4001a20 <kbdPoll>
 4000bd8:	e0bf7b85 	stb	r2,-530(fp)
				if (rcode == hrNAK) {
 4000bdc:	e0bf7b83 	ldbu	r2,-530(fp)
 4000be0:	10800118 	cmpnei	r2,r2,4
 4000be4:	1000fc26 	beq	r2,zero,4000fd8 <main+0x7dc>
					continue; //NAK means no new data
				} else if (rcode) {
 4000be8:	e0bf7b83 	ldbu	r2,-530(fp)
 4000bec:	10000926 	beq	r2,zero,4000c14 <main+0x418>
					printf("Rcode: ");
 4000bf0:	01010074 	movhi	r4,1025
 4000bf4:	2114cb04 	addi	r4,r4,21292
 4000bf8:	40047b80 	call	40047b8 <printf>
					printf("%x \n", rcode);
 4000bfc:	e0bf7b83 	ldbu	r2,-530(fp)
 4000c00:	100b883a 	mov	r5,r2
 4000c04:	01010074 	movhi	r4,1025
 4000c08:	21143c04 	addi	r4,r4,20720
 4000c0c:	40047b80 	call	40047b8 <printf>
					continue;
 4000c10:	0000f206 	br	4000fdc <main+0x7e0>
				}
				//printf("keycodes: ");
				for (int i = 0; i < 6; i++) {
 4000c14:	e03f7415 	stw	zero,-560(fp)
 4000c18:	00005606 	br	4000d74 <main+0x578>
					//printf("%x ", keycodeOrder[i]);
					contains = 0;
 4000c1c:	e03f7305 	stb	zero,-564(fp)
					if(!kbdbuf.keycode[i]){
 4000c20:	e0ff7e44 	addi	r3,fp,-519
 4000c24:	e0bf7417 	ldw	r2,-560(fp)
 4000c28:	1885883a 	add	r2,r3,r2
 4000c2c:	10800003 	ldbu	r2,0(r2)
 4000c30:	10803fcc 	andi	r2,r2,255
 4000c34:	10004b26 	beq	r2,zero,4000d64 <main+0x568>
						continue;
					}
					for(int j = 0; j < 6; j++){
 4000c38:	e03f7515 	stw	zero,-556(fp)
 4000c3c:	00001106 	br	4000c84 <main+0x488>
						if(keycodeOrder[j] == kbdbuf.keycode[i]){
 4000c40:	e0ff7fc4 	addi	r3,fp,-513
 4000c44:	e0bf7517 	ldw	r2,-556(fp)
 4000c48:	1885883a 	add	r2,r3,r2
 4000c4c:	11000003 	ldbu	r4,0(r2)
 4000c50:	e0ff7e44 	addi	r3,fp,-519
 4000c54:	e0bf7417 	ldw	r2,-560(fp)
 4000c58:	1885883a 	add	r2,r3,r2
 4000c5c:	10800003 	ldbu	r2,0(r2)
 4000c60:	20c03fcc 	andi	r3,r4,255
 4000c64:	10803fcc 	andi	r2,r2,255
 4000c68:	1880031e 	bne	r3,r2,4000c78 <main+0x47c>
							contains = 1;
 4000c6c:	00800044 	movi	r2,1
 4000c70:	e0bf7305 	stb	r2,-564(fp)
							break;
 4000c74:	00000606 	br	4000c90 <main+0x494>
					//printf("%x ", keycodeOrder[i]);
					contains = 0;
					if(!kbdbuf.keycode[i]){
						continue;
					}
					for(int j = 0; j < 6; j++){
 4000c78:	e0bf7517 	ldw	r2,-556(fp)
 4000c7c:	10800044 	addi	r2,r2,1
 4000c80:	e0bf7515 	stw	r2,-556(fp)
 4000c84:	e0bf7517 	ldw	r2,-556(fp)
 4000c88:	10800190 	cmplti	r2,r2,6
 4000c8c:	103fec1e 	bne	r2,zero,4000c40 <__alt_data_end+0xfc000c40>
						if(keycodeOrder[j] == kbdbuf.keycode[i]){
							contains = 1;
							break;
						}
					}
					if(!contains){
 4000c90:	e0bf7303 	ldbu	r2,-564(fp)
 4000c94:	1000341e 	bne	r2,zero,4000d68 <main+0x56c>
						if(keycodeOrder[0] == 0){
 4000c98:	e0bf7fc3 	ldbu	r2,-513(fp)
 4000c9c:	10803fcc 	andi	r2,r2,255
 4000ca0:	1000061e 	bne	r2,zero,4000cbc <main+0x4c0>
							keycodeOrder[0] = kbdbuf.keycode[i];
 4000ca4:	e0ff7e44 	addi	r3,fp,-519
 4000ca8:	e0bf7417 	ldw	r2,-560(fp)
 4000cac:	1885883a 	add	r2,r3,r2
 4000cb0:	10800003 	ldbu	r2,0(r2)
 4000cb4:	e0bf7fc5 	stb	r2,-513(fp)
 4000cb8:	00002b06 	br	4000d68 <main+0x56c>
						}else if(keycodeOrder[1] == 0){
 4000cbc:	e0bf8003 	ldbu	r2,-512(fp)
 4000cc0:	10803fcc 	andi	r2,r2,255
 4000cc4:	1000061e 	bne	r2,zero,4000ce0 <main+0x4e4>
							keycodeOrder[1] = kbdbuf.keycode[i];
 4000cc8:	e0ff7e44 	addi	r3,fp,-519
 4000ccc:	e0bf7417 	ldw	r2,-560(fp)
 4000cd0:	1885883a 	add	r2,r3,r2
 4000cd4:	10800003 	ldbu	r2,0(r2)
 4000cd8:	e0bf8005 	stb	r2,-512(fp)
 4000cdc:	00002206 	br	4000d68 <main+0x56c>
						}else if(keycodeOrder[2] == 0){
 4000ce0:	e0bf8043 	ldbu	r2,-511(fp)
 4000ce4:	10803fcc 	andi	r2,r2,255
 4000ce8:	1000061e 	bne	r2,zero,4000d04 <main+0x508>
							keycodeOrder[2] = kbdbuf.keycode[i];
 4000cec:	e0ff7e44 	addi	r3,fp,-519
 4000cf0:	e0bf7417 	ldw	r2,-560(fp)
 4000cf4:	1885883a 	add	r2,r3,r2
 4000cf8:	10800003 	ldbu	r2,0(r2)
 4000cfc:	e0bf8045 	stb	r2,-511(fp)
 4000d00:	00001906 	br	4000d68 <main+0x56c>
						}else if(keycodeOrder[3] == 0){
 4000d04:	e0bf8083 	ldbu	r2,-510(fp)
 4000d08:	10803fcc 	andi	r2,r2,255
 4000d0c:	1000061e 	bne	r2,zero,4000d28 <main+0x52c>
							keycodeOrder[3] = kbdbuf.keycode[i];
 4000d10:	e0ff7e44 	addi	r3,fp,-519
 4000d14:	e0bf7417 	ldw	r2,-560(fp)
 4000d18:	1885883a 	add	r2,r3,r2
 4000d1c:	10800003 	ldbu	r2,0(r2)
 4000d20:	e0bf8085 	stb	r2,-510(fp)
 4000d24:	00001006 	br	4000d68 <main+0x56c>
						}else if(keycodeOrder[4] == 0){
 4000d28:	e0bf80c3 	ldbu	r2,-509(fp)
 4000d2c:	10803fcc 	andi	r2,r2,255
 4000d30:	1000061e 	bne	r2,zero,4000d4c <main+0x550>
							keycodeOrder[4] = kbdbuf.keycode[i];
 4000d34:	e0ff7e44 	addi	r3,fp,-519
 4000d38:	e0bf7417 	ldw	r2,-560(fp)
 4000d3c:	1885883a 	add	r2,r3,r2
 4000d40:	10800003 	ldbu	r2,0(r2)
 4000d44:	e0bf80c5 	stb	r2,-509(fp)
 4000d48:	00000706 	br	4000d68 <main+0x56c>
						}else{
							keycodeOrder[5] = kbdbuf.keycode[i];
 4000d4c:	e0ff7e44 	addi	r3,fp,-519
 4000d50:	e0bf7417 	ldw	r2,-560(fp)
 4000d54:	1885883a 	add	r2,r3,r2
 4000d58:	10800003 	ldbu	r2,0(r2)
 4000d5c:	e0bf8105 	stb	r2,-508(fp)
 4000d60:	00000106 	br	4000d68 <main+0x56c>
				//printf("keycodes: ");
				for (int i = 0; i < 6; i++) {
					//printf("%x ", keycodeOrder[i]);
					contains = 0;
					if(!kbdbuf.keycode[i]){
						continue;
 4000d64:	0001883a 	nop
					printf("Rcode: ");
					printf("%x \n", rcode);
					continue;
				}
				//printf("keycodes: ");
				for (int i = 0; i < 6; i++) {
 4000d68:	e0bf7417 	ldw	r2,-560(fp)
 4000d6c:	10800044 	addi	r2,r2,1
 4000d70:	e0bf7415 	stw	r2,-560(fp)
 4000d74:	e0bf7417 	ldw	r2,-560(fp)
 4000d78:	10800190 	cmplti	r2,r2,6
 4000d7c:	103fa71e 	bne	r2,zero,4000c1c <__alt_data_end+0xfc000c1c>
							keycodeOrder[5] = kbdbuf.keycode[i];
						}
					}
				}

				for(int i = 0; i < 6; i++){
 4000d80:	e03f7615 	stw	zero,-552(fp)
 4000d84:	00002606 	br	4000e20 <main+0x624>
					if(keycodeOrder[i]){
 4000d88:	e0ff7fc4 	addi	r3,fp,-513
 4000d8c:	e0bf7617 	ldw	r2,-552(fp)
 4000d90:	1885883a 	add	r2,r3,r2
 4000d94:	10800003 	ldbu	r2,0(r2)
 4000d98:	10803fcc 	andi	r2,r2,255
 4000d9c:	10001d26 	beq	r2,zero,4000e14 <main+0x618>
						contains = 0;
 4000da0:	e03f7305 	stb	zero,-564(fp)
						for(int j = 0; j < 6; j++){
 4000da4:	e03f7715 	stw	zero,-548(fp)
 4000da8:	00001106 	br	4000df0 <main+0x5f4>
							if(keycodeOrder[i] == kbdbuf.keycode[j]){
 4000dac:	e0ff7fc4 	addi	r3,fp,-513
 4000db0:	e0bf7617 	ldw	r2,-552(fp)
 4000db4:	1885883a 	add	r2,r3,r2
 4000db8:	11000003 	ldbu	r4,0(r2)
 4000dbc:	e0ff7e44 	addi	r3,fp,-519
 4000dc0:	e0bf7717 	ldw	r2,-548(fp)
 4000dc4:	1885883a 	add	r2,r3,r2
 4000dc8:	10800003 	ldbu	r2,0(r2)
 4000dcc:	20c03fcc 	andi	r3,r4,255
 4000dd0:	10803fcc 	andi	r2,r2,255
 4000dd4:	1880031e 	bne	r3,r2,4000de4 <main+0x5e8>
								contains = 1;
 4000dd8:	00800044 	movi	r2,1
 4000ddc:	e0bf7305 	stb	r2,-564(fp)
								break;
 4000de0:	00000606 	br	4000dfc <main+0x600>
				}

				for(int i = 0; i < 6; i++){
					if(keycodeOrder[i]){
						contains = 0;
						for(int j = 0; j < 6; j++){
 4000de4:	e0bf7717 	ldw	r2,-548(fp)
 4000de8:	10800044 	addi	r2,r2,1
 4000dec:	e0bf7715 	stw	r2,-548(fp)
 4000df0:	e0bf7717 	ldw	r2,-548(fp)
 4000df4:	10800190 	cmplti	r2,r2,6
 4000df8:	103fec1e 	bne	r2,zero,4000dac <__alt_data_end+0xfc000dac>
							if(keycodeOrder[i] == kbdbuf.keycode[j]){
								contains = 1;
								break;
							}
						}
						if(!contains){
 4000dfc:	e0bf7303 	ldbu	r2,-564(fp)
 4000e00:	1000041e 	bne	r2,zero,4000e14 <main+0x618>
							keycodeOrder[i] = 0;
 4000e04:	e0ff7fc4 	addi	r3,fp,-513
 4000e08:	e0bf7617 	ldw	r2,-552(fp)
 4000e0c:	1885883a 	add	r2,r3,r2
 4000e10:	10000005 	stb	zero,0(r2)
							keycodeOrder[5] = kbdbuf.keycode[i];
						}
					}
				}

				for(int i = 0; i < 6; i++){
 4000e14:	e0bf7617 	ldw	r2,-552(fp)
 4000e18:	10800044 	addi	r2,r2,1
 4000e1c:	e0bf7615 	stw	r2,-552(fp)
 4000e20:	e0bf7617 	ldw	r2,-552(fp)
 4000e24:	10800190 	cmplti	r2,r2,6
 4000e28:	103fd71e 	bne	r2,zero,4000d88 <__alt_data_end+0xfc000d88>
							keycodeOrder[i] = 0;
						}
					}
				}

				setKeycode(keycodeOrder[0], 0);
 4000e2c:	e0bf7fc3 	ldbu	r2,-513(fp)
 4000e30:	10803fcc 	andi	r2,r2,255
 4000e34:	000b883a 	mov	r5,zero
 4000e38:	1009883a 	mov	r4,r2
 4000e3c:	400077c0 	call	400077c <setKeycode>
				setKeycode(keycodeOrder[1], 1);
 4000e40:	e0bf8003 	ldbu	r2,-512(fp)
 4000e44:	10803fcc 	andi	r2,r2,255
 4000e48:	01400044 	movi	r5,1
 4000e4c:	1009883a 	mov	r4,r2
 4000e50:	400077c0 	call	400077c <setKeycode>
				setKeycode(keycodeOrder[2], 2);
 4000e54:	e0bf8043 	ldbu	r2,-511(fp)
 4000e58:	10803fcc 	andi	r2,r2,255
 4000e5c:	01400084 	movi	r5,2
 4000e60:	1009883a 	mov	r4,r2
 4000e64:	400077c0 	call	400077c <setKeycode>

				/*printf("\nParam value is: %d", *(PARAMVAL));
				printf("\nParam is: %d", *(PARAM));
				printf("\n");*/

				if(param[*(PARAM)] != *(PARAMVAL)){
 4000e68:	d0a00117 	ldw	r2,-32764(gp)
 4000e6c:	10800017 	ldw	r2,0(r2)
 4000e70:	1085883a 	add	r2,r2,r2
 4000e74:	1085883a 	add	r2,r2,r2
 4000e78:	e0ff7304 	addi	r3,fp,-564
 4000e7c:	1885883a 	add	r2,r3,r2
 4000e80:	10800f04 	addi	r2,r2,60
 4000e84:	10c00017 	ldw	r3,0(r2)
 4000e88:	d0a00017 	ldw	r2,-32768(gp)
 4000e8c:	10800017 	ldw	r2,0(r2)
 4000e90:	18bf3c26 	beq	r3,r2,4000b84 <__alt_data_end+0xfc000b84>
					param[*(PARAM)] = *(PARAMVAL);
 4000e94:	d0a00117 	ldw	r2,-32764(gp)
 4000e98:	10800017 	ldw	r2,0(r2)
 4000e9c:	d0e00017 	ldw	r3,-32768(gp)
 4000ea0:	18c00017 	ldw	r3,0(r3)
 4000ea4:	1085883a 	add	r2,r2,r2
 4000ea8:	1085883a 	add	r2,r2,r2
 4000eac:	e13f7304 	addi	r4,fp,-564
 4000eb0:	2085883a 	add	r2,r4,r2
 4000eb4:	10800f04 	addi	r2,r2,60
 4000eb8:	10c00015 	stw	r3,0(r2)
					param[13] = *(PARAM);
 4000ebc:	d0a00117 	ldw	r2,-32764(gp)
 4000ec0:	10800017 	ldw	r2,0(r2)
 4000ec4:	e0bf8f15 	stw	r2,-452(fp)
					for(int i = 0; i < 13; i++){
 4000ec8:	e03f7815 	stw	zero,-544(fp)
 4000ecc:	00001406 	br	4000f20 <main+0x724>
										printf("%d) %s : %d\n", i, paramnames[i], param[i]);}
 4000ed0:	e0ff9e04 	addi	r3,fp,-392
 4000ed4:	e0bf7817 	ldw	r2,-544(fp)
 4000ed8:	108007a4 	muli	r2,r2,30
 4000edc:	1887883a 	add	r3,r3,r2
 4000ee0:	e0bf7817 	ldw	r2,-544(fp)
 4000ee4:	1085883a 	add	r2,r2,r2
 4000ee8:	1085883a 	add	r2,r2,r2
 4000eec:	e13f7304 	addi	r4,fp,-564
 4000ef0:	2085883a 	add	r2,r4,r2
 4000ef4:	10800f04 	addi	r2,r2,60
 4000ef8:	10800017 	ldw	r2,0(r2)
 4000efc:	100f883a 	mov	r7,r2
 4000f00:	180d883a 	mov	r6,r3
 4000f04:	e17f7817 	ldw	r5,-544(fp)
 4000f08:	01010074 	movhi	r4,1025
 4000f0c:	2114cd04 	addi	r4,r4,21300
 4000f10:	40047b80 	call	40047b8 <printf>
				printf("\n");*/

				if(param[*(PARAM)] != *(PARAMVAL)){
					param[*(PARAM)] = *(PARAMVAL);
					param[13] = *(PARAM);
					for(int i = 0; i < 13; i++){
 4000f14:	e0bf7817 	ldw	r2,-544(fp)
 4000f18:	10800044 	addi	r2,r2,1
 4000f1c:	e0bf7815 	stw	r2,-544(fp)
 4000f20:	e0bf7817 	ldw	r2,-544(fp)
 4000f24:	10800350 	cmplti	r2,r2,13
 4000f28:	103fe91e 	bne	r2,zero,4000ed0 <__alt_data_end+0xfc000ed0>
										printf("%d) %s : %d\n", i, paramnames[i], param[i]);}
					printf("Selecting: %d\n", param[13]);
 4000f2c:	e0bf8f17 	ldw	r2,-452(fp)
 4000f30:	100b883a 	mov	r5,r2
 4000f34:	01010074 	movhi	r4,1025
 4000f38:	2114d104 	addi	r4,r4,21316
 4000f3c:	40047b80 	call	40047b8 <printf>
 4000f40:	003f1006 	br	4000b84 <__alt_data_end+0xfc000b84>
				}
			}

			 else if (GetUsbTaskState() == USB_STATE_ERROR) {
 4000f44:	4002fbc0 	call	4002fbc <GetUsbTaskState>
 4000f48:	10803fcc 	andi	r2,r2,255
 4000f4c:	10803fd8 	cmpnei	r2,r2,255
 4000f50:	10000a1e 	bne	r2,zero,4000f7c <main+0x780>
			if (!errorflag) {
 4000f54:	e0bf7383 	ldbu	r2,-562(fp)
 4000f58:	103f0a1e 	bne	r2,zero,4000b84 <__alt_data_end+0xfc000b84>
				errorflag = 1;
 4000f5c:	00800044 	movi	r2,1
 4000f60:	e0bf7385 	stb	r2,-562(fp)
				clearLED(9);
 4000f64:	01000244 	movi	r4,9
 4000f68:	40002dc0 	call	40002dc <clearLED>
				printf("USB Error State\n");
 4000f6c:	01010074 	movhi	r4,1025
 4000f70:	2114d504 	addi	r4,r4,21332
 4000f74:	40048b40 	call	40048b4 <puts>
 4000f78:	003f0206 	br	4000b84 <__alt_data_end+0xfc000b84>
				//print out string descriptor here
			}
		} else //not in USB running state
		{

			printf("USB task state: ");
 4000f7c:	01010074 	movhi	r4,1025
 4000f80:	2114d904 	addi	r4,r4,21348
 4000f84:	40047b80 	call	40047b8 <printf>
			printf("%x\n", GetUsbTaskState());
 4000f88:	4002fbc0 	call	4002fbc <GetUsbTaskState>
 4000f8c:	10803fcc 	andi	r2,r2,255
 4000f90:	100b883a 	mov	r5,r2
 4000f94:	01010074 	movhi	r4,1025
 4000f98:	2114de04 	addi	r4,r4,21368
 4000f9c:	40047b80 	call	40047b8 <printf>
			printf("device: %d\n", device);
 4000fa0:	e0bf73c3 	ldbu	r2,-561(fp)
 4000fa4:	100b883a 	mov	r5,r2
 4000fa8:	01010074 	movhi	r4,1025
 4000fac:	2114df04 	addi	r4,r4,21372
 4000fb0:	40047b80 	call	40047b8 <printf>
			if (runningdebugflag) {	//previously running, reset USB hardware just to clear out any funky state, HS/FS etc
 4000fb4:	e0bf7343 	ldbu	r2,-563(fp)
 4000fb8:	10000326 	beq	r2,zero,4000fc8 <main+0x7cc>
				runningdebugflag = 0;
 4000fbc:	e03f7345 	stb	zero,-563(fp)
				MAX3421E_init();
 4000fc0:	40020380 	call	4002038 <MAX3421E_init>
				USB_init();
 4000fc4:	40027d40 	call	40027d4 <USB_init>
			}
			errorflag = 0;
 4000fc8:	e03f7385 	stb	zero,-562(fp)
			clearLED(9);
 4000fcc:	01000244 	movi	r4,9
 4000fd0:	40002dc0 	call	40002dc <clearLED>
 4000fd4:	003eeb06 	br	4000b84 <__alt_data_end+0xfc000b84>
				device = GetDriverandReport();
			} else if (device == 1) {
				//run keyboard debug polling
				rcode = kbdPoll(&kbdbuf);
				if (rcode == hrNAK) {
					continue; //NAK means no new data
 4000fd8:	0001883a 	nop
			}
			errorflag = 0;
			clearLED(9);
		}
		}
	}
 4000fdc:	003ee906 	br	4000b84 <__alt_data_end+0xfc000b84>

	return 0;
}
 4000fe0:	e037883a 	mov	sp,fp
 4000fe4:	dfc00117 	ldw	ra,4(sp)
 4000fe8:	df000017 	ldw	fp,0(sp)
 4000fec:	dec00204 	addi	sp,sp,8
 4000ff0:	f800283a 	ret

04000ff4 <SGTL5000_Reg_Rd>:
#include "sgtl5000.h"
#include "altera_avalon_i2c.h"
#include "altera_avalon_i2c_regs.h"

WORD SGTL5000_Reg_Rd (ALT_AVALON_I2C_DEV_t* dev, WORD ADDR)
{
 4000ff4:	defff804 	addi	sp,sp,-32
 4000ff8:	dfc00715 	stw	ra,28(sp)
 4000ffc:	df000615 	stw	fp,24(sp)
 4001000:	df000604 	addi	fp,sp,24
 4001004:	e13ffe15 	stw	r4,-8(fp)
 4001008:	2805883a 	mov	r2,r5
 400100c:	e0bfff0d 	sth	r2,-4(fp)
	BYTE buffer[2];
	WORD value;
	buffer[0] = (ADDR & 0xFF00) >> 8;
 4001010:	e0bfff0b 	ldhu	r2,-4(fp)
 4001014:	1004d23a 	srli	r2,r2,8
 4001018:	e0bffd85 	stb	r2,-10(fp)
	buffer[1] = (ADDR & 0x00FF);
 400101c:	e0bfff0b 	ldhu	r2,-4(fp)
 4001020:	e0bffdc5 	stb	r2,-9(fp)

	ALT_AVALON_I2C_STATUS_CODE status=alt_avalon_i2c_master_tx_rx(dev,buffer,2,buffer,2,0);
 4001024:	e13ffd84 	addi	r4,fp,-10
 4001028:	e0fffd84 	addi	r3,fp,-10
 400102c:	d8000115 	stw	zero,4(sp)
 4001030:	00800084 	movi	r2,2
 4001034:	d8800015 	stw	r2,0(sp)
 4001038:	200f883a 	mov	r7,r4
 400103c:	01800084 	movi	r6,2
 4001040:	180b883a 	mov	r5,r3
 4001044:	e13ffe17 	ldw	r4,-8(fp)
 4001048:	40120640 	call	4012064 <alt_avalon_i2c_master_tx_rx>
 400104c:	e0bffc15 	stw	r2,-16(fp)

	if (status != ALT_AVALON_I2C_SUCCESS){
 4001050:	e0bffc17 	ldw	r2,-16(fp)
 4001054:	10000626 	beq	r2,zero,4001070 <SGTL5000_Reg_Rd+0x7c>
		printf ("SGTL5000 I2C error, address: %x", ADDR);
 4001058:	e0bfff0b 	ldhu	r2,-4(fp)
 400105c:	100b883a 	mov	r5,r2
 4001060:	01010074 	movhi	r4,1025
 4001064:	21154404 	addi	r4,r4,21776
 4001068:	40047b80 	call	40047b8 <printf>
		while (1)
		{
			//hang here
		}
 400106c:	003fff06 	br	400106c <__alt_data_end+0xfc00106c>
	}
	value = (buffer[0] << 8) | buffer[1];
 4001070:	e0bffd83 	ldbu	r2,-10(fp)
 4001074:	10803fcc 	andi	r2,r2,255
 4001078:	1004923a 	slli	r2,r2,8
 400107c:	1007883a 	mov	r3,r2
 4001080:	e0bffdc3 	ldbu	r2,-9(fp)
 4001084:	10803fcc 	andi	r2,r2,255
 4001088:	1884b03a 	or	r2,r3,r2
 400108c:	e0bffd0d 	sth	r2,-12(fp)
	return value;
 4001090:	e0bffd0b 	ldhu	r2,-12(fp)
}
 4001094:	e037883a 	mov	sp,fp
 4001098:	dfc00117 	ldw	ra,4(sp)
 400109c:	df000017 	ldw	fp,0(sp)
 40010a0:	dec00204 	addi	sp,sp,8
 40010a4:	f800283a 	ret

040010a8 <SGTL5000_Reg_Wr>:

WORD SGTL5000_Reg_Wr (ALT_AVALON_I2C_DEV_t* dev, WORD ADDR, WORD DATA)
{
 40010a8:	defff904 	addi	sp,sp,-28
 40010ac:	dfc00615 	stw	ra,24(sp)
 40010b0:	df000515 	stw	fp,20(sp)
 40010b4:	df000504 	addi	fp,sp,20
 40010b8:	e13ffd15 	stw	r4,-12(fp)
 40010bc:	2807883a 	mov	r3,r5
 40010c0:	3005883a 	mov	r2,r6
 40010c4:	e0fffe0d 	sth	r3,-8(fp)
 40010c8:	e0bfff0d 	sth	r2,-4(fp)
	BYTE buffer[4];
	buffer[0] = (ADDR & 0xFF00) >> 8;
 40010cc:	e0bffe0b 	ldhu	r2,-8(fp)
 40010d0:	1004d23a 	srli	r2,r2,8
 40010d4:	e0bffc05 	stb	r2,-16(fp)
	buffer[1] = (ADDR & 0x00FF);
 40010d8:	e0bffe0b 	ldhu	r2,-8(fp)
 40010dc:	e0bffc45 	stb	r2,-15(fp)
	buffer[2] = (DATA & 0xFF00) >> 8;
 40010e0:	e0bfff0b 	ldhu	r2,-4(fp)
 40010e4:	1004d23a 	srli	r2,r2,8
 40010e8:	e0bffc85 	stb	r2,-14(fp)
	buffer[3] = (DATA & 0x00FF);
 40010ec:	e0bfff0b 	ldhu	r2,-4(fp)
 40010f0:	e0bffcc5 	stb	r2,-13(fp)


	ALT_AVALON_I2C_STATUS_CODE status=alt_avalon_i2c_master_tx(dev,buffer,4,0);
 40010f4:	e0bffc04 	addi	r2,fp,-16
 40010f8:	000f883a 	mov	r7,zero
 40010fc:	01800104 	movi	r6,4
 4001100:	100b883a 	mov	r5,r2
 4001104:	e13ffd17 	ldw	r4,-12(fp)
 4001108:	4011e400 	call	4011e40 <alt_avalon_i2c_master_tx>
 400110c:	e0bffb15 	stw	r2,-20(fp)

	if (status != ALT_AVALON_I2C_SUCCESS){
 4001110:	e0bffb17 	ldw	r2,-20(fp)
 4001114:	10000626 	beq	r2,zero,4001130 <SGTL5000_Reg_Wr+0x88>
		printf ("SGTL5000 I2C error, address: %x", ADDR);
 4001118:	e0bffe0b 	ldhu	r2,-8(fp)
 400111c:	100b883a 	mov	r5,r2
 4001120:	01010074 	movhi	r4,1025
 4001124:	21154404 	addi	r4,r4,21776
 4001128:	40047b80 	call	40047b8 <printf>
		while (1)
		{
			//hang here
		}
 400112c:	003fff06 	br	400112c <__alt_data_end+0xfc00112c>
	}
	return DATA;
 4001130:	e0bfff0b 	ldhu	r2,-4(fp)
}
 4001134:	e037883a 	mov	sp,fp
 4001138:	dfc00117 	ldw	ra,4(sp)
 400113c:	df000017 	ldw	fp,0(sp)
 4001140:	dec00204 	addi	sp,sp,8
 4001144:	f800283a 	ret

04001148 <HIDMProbe>:
/* HID Mouse probe. Called from USB state machine.                          */
/* assumes configuration length is less than 256 bytes                      */
/* looks for Class:03, Subclass: 01, Protocol: 02 in interface descriptor   */
/* sets mouse in boot protocol                                              */
/* assumes single configuration and interface configuration 0               */
BOOL HIDMProbe(BYTE addr, DWORD flags) {
 4001148:	defff204 	addi	sp,sp,-56
 400114c:	dfc00d15 	stw	ra,52(sp)
 4001150:	df000c15 	stw	fp,48(sp)
 4001154:	df000c04 	addi	fp,sp,48
 4001158:	2005883a 	mov	r2,r4
 400115c:	e17fff15 	stw	r5,-4(fp)
 4001160:	e0bffe05 	stb	r2,-8(fp)
	BYTE tmpbyte;
	BYTE rcode;
	BYTE confvalue;
	WORD total_length;
	USB_DESCR* data_ptr = (USB_DESCR *) &bigbuf;
 4001164:	008100b4 	movhi	r2,1026
 4001168:	10a43404 	addi	r2,r2,-28464
 400116c:	e0bffa15 	stw	r2,-24(fp)
	BYTE* byte_ptr = bigbuf;
 4001170:	008100b4 	movhi	r2,1026
 4001174:	10a43404 	addi	r2,r2,-28464
 4001178:	e0bffb15 	stw	r2,-20(fp)
	rcode = XferGetConfDescr(addr, 0, CONF_DESCR_LEN, 0, bigbuf); //get configuration descriptor
 400117c:	e0fffe03 	ldbu	r3,-8(fp)
 4001180:	008100b4 	movhi	r2,1026
 4001184:	10a43404 	addi	r2,r2,-28464
 4001188:	d8800415 	stw	r2,16(sp)
 400118c:	00800244 	movi	r2,9
 4001190:	d8800315 	stw	r2,12(sp)
 4001194:	d8000215 	stw	zero,8(sp)
 4001198:	00800084 	movi	r2,2
 400119c:	d8800115 	stw	r2,4(sp)
 40011a0:	d8000015 	stw	zero,0(sp)
 40011a4:	01c00184 	movi	r7,6
 40011a8:	01802004 	movi	r6,128
 40011ac:	000b883a 	mov	r5,zero
 40011b0:	1809883a 	mov	r4,r3
 40011b4:	40022380 	call	4002238 <XferCtrlReq>
 40011b8:	e0bffc05 	stb	r2,-16(fp)
	if (rcode) {   //error handling
 40011bc:	e0bffc03 	ldbu	r2,-16(fp)
 40011c0:	10000226 	beq	r2,zero,40011cc <HIDMProbe+0x84>
		//printf("unable to get configuration descriptor");
		return (FALSE);
 40011c4:	0005883a 	mov	r2,zero
 40011c8:	0000dc06 	br	400153c <HIDMProbe+0x3f4>
	}
	if (data_ptr->descr.config.wTotalLength > 256) {
 40011cc:	e0bffa17 	ldw	r2,-24(fp)
 40011d0:	1080008b 	ldhu	r2,2(r2)
 40011d4:	10bfffcc 	andi	r2,r2,65535
 40011d8:	10804070 	cmpltui	r2,r2,257
 40011dc:	1000031e 	bne	r2,zero,40011ec <HIDMProbe+0xa4>
		total_length = 256;
 40011e0:	00804004 	movi	r2,256
 40011e4:	e0bff90d 	sth	r2,-28(fp)
 40011e8:	00000306 	br	40011f8 <HIDMProbe+0xb0>
	} else {
		total_length = data_ptr->descr.config.wTotalLength;
 40011ec:	e0bffa17 	ldw	r2,-24(fp)
 40011f0:	1080008b 	ldhu	r2,2(r2)
 40011f4:	e0bff90d 	sth	r2,-28(fp)
	}
	rcode = XferGetConfDescr(addr, 0, total_length, 0, bigbuf); //get the whole configuration
 40011f8:	e13ffe03 	ldbu	r4,-8(fp)
 40011fc:	e0fff90b 	ldhu	r3,-28(fp)
 4001200:	008100b4 	movhi	r2,1026
 4001204:	10a43404 	addi	r2,r2,-28464
 4001208:	d8800415 	stw	r2,16(sp)
 400120c:	d8c00315 	stw	r3,12(sp)
 4001210:	d8000215 	stw	zero,8(sp)
 4001214:	00800084 	movi	r2,2
 4001218:	d8800115 	stw	r2,4(sp)
 400121c:	d8000015 	stw	zero,0(sp)
 4001220:	01c00184 	movi	r7,6
 4001224:	01802004 	movi	r6,128
 4001228:	000b883a 	mov	r5,zero
 400122c:	40022380 	call	4002238 <XferCtrlReq>
 4001230:	e0bffc05 	stb	r2,-16(fp)
	if (rcode) {   //error handling
 4001234:	e0bffc03 	ldbu	r2,-16(fp)
 4001238:	10000226 	beq	r2,zero,4001244 <HIDMProbe+0xfc>
		//printf("unable to get configuration");
		return (FALSE);
 400123c:	0005883a 	mov	r2,zero
 4001240:	0000be06 	br	400153c <HIDMProbe+0x3f4>
	}
	confvalue = data_ptr->descr.config.bConfigurationValue;
 4001244:	e0bffa17 	ldw	r2,-24(fp)
 4001248:	10800143 	ldbu	r2,5(r2)
 400124c:	e0bffc45 	stb	r2,-15(fp)
	//printf("checking configuration value (length: %d): ",
	//		data_ptr->descr.config.wTotalLength);
	//for (int i = 0; i < data_ptr->descr.config.wTotalLength; i++) {
		//printf("%x ", (unsigned char) (bigbuf[i] & 0xff));
	//}
	while (byte_ptr < bigbuf + total_length) {
 4001250:	0000b306 	br	4001520 <HIDMProbe+0x3d8>
		if (data_ptr->descr.config.bDescriptorType != USB_DESCRIPTOR_INTERFACE) {
 4001254:	e0bffa17 	ldw	r2,-24(fp)
 4001258:	10800043 	ldbu	r2,1(r2)
 400125c:	10803fcc 	andi	r2,r2,255
 4001260:	10800120 	cmpeqi	r2,r2,4
 4001264:	1000091e 	bne	r2,zero,400128c <HIDMProbe+0x144>
			byte_ptr = byte_ptr + data_ptr->descr.config.bLength;
 4001268:	e0bffa17 	ldw	r2,-24(fp)
 400126c:	10800003 	ldbu	r2,0(r2)
 4001270:	10803fcc 	andi	r2,r2,255
 4001274:	e0fffb17 	ldw	r3,-20(fp)
 4001278:	1885883a 	add	r2,r3,r2
 400127c:	e0bffb15 	stw	r2,-20(fp)
			data_ptr = (USB_DESCR*) byte_ptr;
 4001280:	e0bffb17 	ldw	r2,-20(fp)
 4001284:	e0bffa15 	stw	r2,-24(fp)
 4001288:	0000a506 	br	4001520 <HIDMProbe+0x3d8>
		} // if( data_ptr->descr.config.bDescriptorType != USB_DESCRIPTOR_INTERFACE
		else {
			//printf("starting interface parsing at byte location %d\n",
			//		data_ptr->descr.config.bLength);
			BYTE class = data_ptr->descr.interface.bInterfaceClass;
 400128c:	e0bffa17 	ldw	r2,-24(fp)
 4001290:	10800143 	ldbu	r2,5(r2)
 4001294:	e0bffc85 	stb	r2,-14(fp)
			BYTE subclass = data_ptr->descr.interface.bInterfaceSubClass;
 4001298:	e0bffa17 	ldw	r2,-24(fp)
 400129c:	10800183 	ldbu	r2,6(r2)
 40012a0:	e0bffcc5 	stb	r2,-13(fp)
			BYTE protocol = data_ptr->descr.interface.bInterfaceProtocol;
 40012a4:	e0bffa17 	ldw	r2,-24(fp)
 40012a8:	108001c3 	ldbu	r2,7(r2)
 40012ac:	e0bffd05 	stb	r2,-12(fp)
			//printf("class %x, subclass %x, protocol %x,\n", class, subclass,
			//		protocol);
			//interface descriptor
			if (class == HID_INTF && subclass == BOOT_INTF_SUBCLASS
 40012b0:	e0bffc83 	ldbu	r2,-14(fp)
 40012b4:	108000d8 	cmpnei	r2,r2,3
 40012b8:	1000971e 	bne	r2,zero,4001518 <HIDMProbe+0x3d0>
 40012bc:	e0bffcc3 	ldbu	r2,-13(fp)
 40012c0:	10800058 	cmpnei	r2,r2,1
 40012c4:	1000941e 	bne	r2,zero,4001518 <HIDMProbe+0x3d0>
					&& protocol == HID_PROTOCOL_MOUSE) {
 40012c8:	e0bffd03 	ldbu	r2,-12(fp)
 40012cc:	10800098 	cmpnei	r2,r2,2
 40012d0:	1000911e 	bne	r2,zero,4001518 <HIDMProbe+0x3d0>
				//detected a mouse
				devtable[addr].devclass = HID_M;                  //device class
 40012d4:	e0fffe03 	ldbu	r3,-8(fp)
 40012d8:	008100b4 	movhi	r2,1026
 40012dc:	10a47404 	addi	r2,r2,-28208
 40012e0:	180690fa 	slli	r3,r3,3
 40012e4:	10c5883a 	add	r2,r2,r3
 40012e8:	10800104 	addi	r2,r2,4
 40012ec:	00c00084 	movi	r3,2
 40012f0:	10c00005 	stb	r3,0(r2)
				tmpbyte = devtable[addr].epinfo->MaxPktSize;
 40012f4:	e0fffe03 	ldbu	r3,-8(fp)
 40012f8:	008100b4 	movhi	r2,1026
 40012fc:	10a47404 	addi	r2,r2,-28208
 4001300:	180690fa 	slli	r3,r3,3
 4001304:	10c5883a 	add	r2,r2,r3
 4001308:	10800017 	ldw	r2,0(r2)
 400130c:	1080008b 	ldhu	r2,2(r2)
 4001310:	e0bffd45 	stb	r2,-11(fp)
				HID_init();                         //initialize data structures
 4001314:	40019580 	call	4001958 <HID_init>
				devtable[addr].epinfo = hid_ep; //switch endpoint information structure
 4001318:	e0fffe03 	ldbu	r3,-8(fp)
 400131c:	008100b4 	movhi	r2,1026
 4001320:	10a47404 	addi	r2,r2,-28208
 4001324:	180690fa 	slli	r3,r3,3
 4001328:	10c7883a 	add	r3,r2,r3
 400132c:	008100b4 	movhi	r2,1026
 4001330:	10a42004 	addi	r2,r2,-28544
 4001334:	18800015 	stw	r2,0(r3)
				devtable[addr].epinfo[0].MaxPktSize = tmpbyte;
 4001338:	e0fffe03 	ldbu	r3,-8(fp)
 400133c:	008100b4 	movhi	r2,1026
 4001340:	10a47404 	addi	r2,r2,-28208
 4001344:	180690fa 	slli	r3,r3,3
 4001348:	10c5883a 	add	r2,r2,r3
 400134c:	10800017 	ldw	r2,0(r2)
 4001350:	e0fffd43 	ldbu	r3,-11(fp)
 4001354:	10c0008d 	sth	r3,2(r2)
				hid_device.interface =
						data_ptr->descr.interface.bInterfaceNumber;
 4001358:	e0bffa17 	ldw	r2,-24(fp)
 400135c:	10800083 	ldbu	r2,2(r2)
				devtable[addr].devclass = HID_M;                  //device class
				tmpbyte = devtable[addr].epinfo->MaxPktSize;
				HID_init();                         //initialize data structures
				devtable[addr].epinfo = hid_ep; //switch endpoint information structure
				devtable[addr].epinfo[0].MaxPktSize = tmpbyte;
				hid_device.interface =
 4001360:	d0a6f745 	stb	r2,-25635(gp)
						data_ptr->descr.interface.bInterfaceNumber;
				hid_device.addr = addr;
 4001364:	e0bffe03 	ldbu	r2,-8(fp)
 4001368:	d0a6f705 	stb	r2,-25636(gp)
				byte_ptr = byte_ptr + data_ptr->descr.config.bLength;
 400136c:	e0bffa17 	ldw	r2,-24(fp)
 4001370:	10800003 	ldbu	r2,0(r2)
 4001374:	10803fcc 	andi	r2,r2,255
 4001378:	e0fffb17 	ldw	r3,-20(fp)
 400137c:	1885883a 	add	r2,r3,r2
 4001380:	e0bffb15 	stw	r2,-20(fp)
				data_ptr = (USB_DESCR*) byte_ptr;
 4001384:	e0bffb17 	ldw	r2,-20(fp)
 4001388:	e0bffa15 	stw	r2,-24(fp)
				while (byte_ptr < bigbuf + total_length) {
 400138c:	00005b06 	br	40014fc <HIDMProbe+0x3b4>
					if (data_ptr->descr.config.bDescriptorType
 4001390:	e0bffa17 	ldw	r2,-24(fp)
 4001394:	10800043 	ldbu	r2,1(r2)
 4001398:	10803fcc 	andi	r2,r2,255
 400139c:	10800160 	cmpeqi	r2,r2,5
 40013a0:	1000091e 	bne	r2,zero,40013c8 <HIDMProbe+0x280>
							!= USB_DESCRIPTOR_ENDPOINT) { //skip to endpoint descriptor
						byte_ptr = byte_ptr + data_ptr->descr.config.bLength;
 40013a4:	e0bffa17 	ldw	r2,-24(fp)
 40013a8:	10800003 	ldbu	r2,0(r2)
 40013ac:	10803fcc 	andi	r2,r2,255
 40013b0:	e0fffb17 	ldw	r3,-20(fp)
 40013b4:	1885883a 	add	r2,r3,r2
 40013b8:	e0bffb15 	stw	r2,-20(fp)
						data_ptr = (USB_DESCR*) byte_ptr;
 40013bc:	e0bffb17 	ldw	r2,-20(fp)
 40013c0:	e0bffa15 	stw	r2,-24(fp)
 40013c4:	00004d06 	br	40014fc <HIDMProbe+0x3b4>
					} else {
						/* fill endpoint information structure */
						devtable[addr].epinfo[1].epAddr =
 40013c8:	e0fffe03 	ldbu	r3,-8(fp)
 40013cc:	008100b4 	movhi	r2,1026
 40013d0:	10a47404 	addi	r2,r2,-28208
 40013d4:	180690fa 	slli	r3,r3,3
 40013d8:	10c5883a 	add	r2,r2,r3
 40013dc:	10800017 	ldw	r2,0(r2)
 40013e0:	10800204 	addi	r2,r2,8
								data_ptr->descr.endpoint.bEndpointAddress;
 40013e4:	e0fffa17 	ldw	r3,-24(fp)
 40013e8:	18c00083 	ldbu	r3,2(r3)
							!= USB_DESCRIPTOR_ENDPOINT) { //skip to endpoint descriptor
						byte_ptr = byte_ptr + data_ptr->descr.config.bLength;
						data_ptr = (USB_DESCR*) byte_ptr;
					} else {
						/* fill endpoint information structure */
						devtable[addr].epinfo[1].epAddr =
 40013ec:	10c00005 	stb	r3,0(r2)
								data_ptr->descr.endpoint.bEndpointAddress;
						devtable[addr].epinfo[1].Attr =
 40013f0:	e0fffe03 	ldbu	r3,-8(fp)
 40013f4:	008100b4 	movhi	r2,1026
 40013f8:	10a47404 	addi	r2,r2,-28208
 40013fc:	180690fa 	slli	r3,r3,3
 4001400:	10c5883a 	add	r2,r2,r3
 4001404:	10800017 	ldw	r2,0(r2)
 4001408:	10800204 	addi	r2,r2,8
								data_ptr->descr.endpoint.bmAttributes;
 400140c:	e0fffa17 	ldw	r3,-24(fp)
 4001410:	18c000c3 	ldbu	r3,3(r3)
						data_ptr = (USB_DESCR*) byte_ptr;
					} else {
						/* fill endpoint information structure */
						devtable[addr].epinfo[1].epAddr =
								data_ptr->descr.endpoint.bEndpointAddress;
						devtable[addr].epinfo[1].Attr =
 4001414:	10c00045 	stb	r3,1(r2)
								data_ptr->descr.endpoint.bmAttributes;
						devtable[addr].epinfo[1].MaxPktSize =
 4001418:	e0fffe03 	ldbu	r3,-8(fp)
 400141c:	008100b4 	movhi	r2,1026
 4001420:	10a47404 	addi	r2,r2,-28208
 4001424:	180690fa 	slli	r3,r3,3
 4001428:	10c5883a 	add	r2,r2,r3
 400142c:	10800017 	ldw	r2,0(r2)
 4001430:	10800204 	addi	r2,r2,8
								data_ptr->descr.endpoint.wMaxPacketSize;
 4001434:	e0fffa17 	ldw	r3,-24(fp)
 4001438:	18c0010b 	ldhu	r3,4(r3)
						/* fill endpoint information structure */
						devtable[addr].epinfo[1].epAddr =
								data_ptr->descr.endpoint.bEndpointAddress;
						devtable[addr].epinfo[1].Attr =
								data_ptr->descr.endpoint.bmAttributes;
						devtable[addr].epinfo[1].MaxPktSize =
 400143c:	10c0008d 	sth	r3,2(r2)
								data_ptr->descr.endpoint.wMaxPacketSize;
						devtable[addr].epinfo[1].Interval =
 4001440:	e0fffe03 	ldbu	r3,-8(fp)
 4001444:	008100b4 	movhi	r2,1026
 4001448:	10a47404 	addi	r2,r2,-28208
 400144c:	180690fa 	slli	r3,r3,3
 4001450:	10c5883a 	add	r2,r2,r3
 4001454:	10800017 	ldw	r2,0(r2)
 4001458:	10800204 	addi	r2,r2,8
								data_ptr->descr.endpoint.bInterval;
 400145c:	e0fffa17 	ldw	r3,-24(fp)
 4001460:	18c00183 	ldbu	r3,6(r3)
								data_ptr->descr.endpoint.bEndpointAddress;
						devtable[addr].epinfo[1].Attr =
								data_ptr->descr.endpoint.bmAttributes;
						devtable[addr].epinfo[1].MaxPktSize =
								data_ptr->descr.endpoint.wMaxPacketSize;
						devtable[addr].epinfo[1].Interval =
 4001464:	10c00105 	stb	r3,4(r2)
								data_ptr->descr.endpoint.bInterval;
						// devtable[ addr ].epinfo[ 1 ].rcvToggle = bmRCVTOG0;
						/* configure device */
						rcode = XferSetConf(addr, 0, confvalue); //set configuration
 4001468:	e0fffe03 	ldbu	r3,-8(fp)
 400146c:	e0bffc43 	ldbu	r2,-15(fp)
 4001470:	d8000415 	stw	zero,16(sp)
 4001474:	d8000315 	stw	zero,12(sp)
 4001478:	d8000215 	stw	zero,8(sp)
 400147c:	d8000115 	stw	zero,4(sp)
 4001480:	d8800015 	stw	r2,0(sp)
 4001484:	01c00244 	movi	r7,9
 4001488:	000d883a 	mov	r6,zero
 400148c:	000b883a 	mov	r5,zero
 4001490:	1809883a 	mov	r4,r3
 4001494:	40022380 	call	4002238 <XferCtrlReq>
 4001498:	e0bffc05 	stb	r2,-16(fp)
						if (rcode) {   //error handling
 400149c:	e0bffc03 	ldbu	r2,-16(fp)
 40014a0:	10000226 	beq	r2,zero,40014ac <HIDMProbe+0x364>
							return (FALSE);
 40014a4:	0005883a 	mov	r2,zero
 40014a8:	00002406 	br	400153c <HIDMProbe+0x3f4>
						}
						rcode = XferSetProto(addr, 0, hid_device.interface,
 40014ac:	e0fffe03 	ldbu	r3,-8(fp)
 40014b0:	d0a6f743 	ldbu	r2,-25635(gp)
 40014b4:	10803fcc 	andi	r2,r2,255
 40014b8:	d8000415 	stw	zero,16(sp)
 40014bc:	d8000315 	stw	zero,12(sp)
 40014c0:	d8800215 	stw	r2,8(sp)
 40014c4:	d8000115 	stw	zero,4(sp)
 40014c8:	d8000015 	stw	zero,0(sp)
 40014cc:	01c002c4 	movi	r7,11
 40014d0:	01800844 	movi	r6,33
 40014d4:	000b883a 	mov	r5,zero
 40014d8:	1809883a 	mov	r4,r3
 40014dc:	40022380 	call	4002238 <XferCtrlReq>
 40014e0:	e0bffc05 	stb	r2,-16(fp)
								BOOT_PROTOCOL);
						if (rcode) {   //error handling
 40014e4:	e0bffc03 	ldbu	r2,-16(fp)
 40014e8:	10000226 	beq	r2,zero,40014f4 <HIDMProbe+0x3ac>
							return (FALSE);
 40014ec:	0005883a 	mov	r2,zero
 40014f0:	00001206 	br	400153c <HIDMProbe+0x3f4>
						} else {
							return (TRUE);
 40014f4:	00800044 	movi	r2,1
 40014f8:	00001006 	br	400153c <HIDMProbe+0x3f4>
				hid_device.interface =
						data_ptr->descr.interface.bInterfaceNumber;
				hid_device.addr = addr;
				byte_ptr = byte_ptr + data_ptr->descr.config.bLength;
				data_ptr = (USB_DESCR*) byte_ptr;
				while (byte_ptr < bigbuf + total_length) {
 40014fc:	e0fff90b 	ldhu	r3,-28(fp)
 4001500:	008100b4 	movhi	r2,1026
 4001504:	10a43404 	addi	r2,r2,-28464
 4001508:	1885883a 	add	r2,r3,r2
 400150c:	e0fffb17 	ldw	r3,-20(fp)
 4001510:	18bf9f36 	bltu	r3,r2,4001390 <__alt_data_end+0xfc001390>
			BYTE subclass = data_ptr->descr.interface.bInterfaceSubClass;
			BYTE protocol = data_ptr->descr.interface.bInterfaceProtocol;
			//printf("class %x, subclass %x, protocol %x,\n", class, subclass,
			//		protocol);
			//interface descriptor
			if (class == HID_INTF && subclass == BOOT_INTF_SUBCLASS
 4001514:	00000206 	br	4001520 <HIDMProbe+0x3d8>
						}
					}
				}   //while( byte_ptr....
			}   //if (Class matches
			else { //if class don't match; die on first interface. Not really correct
				return (FALSE);
 4001518:	0005883a 	mov	r2,zero
 400151c:	00000706 	br	400153c <HIDMProbe+0x3f4>
	//printf("checking configuration value (length: %d): ",
	//		data_ptr->descr.config.wTotalLength);
	//for (int i = 0; i < data_ptr->descr.config.wTotalLength; i++) {
		//printf("%x ", (unsigned char) (bigbuf[i] & 0xff));
	//}
	while (byte_ptr < bigbuf + total_length) {
 4001520:	e0fff90b 	ldhu	r3,-28(fp)
 4001524:	008100b4 	movhi	r2,1026
 4001528:	10a43404 	addi	r2,r2,-28464
 400152c:	1885883a 	add	r2,r3,r2
 4001530:	e0fffb17 	ldw	r3,-20(fp)
 4001534:	18bf4736 	bltu	r3,r2,4001254 <__alt_data_end+0xfc001254>
			else { //if class don't match; die on first interface. Not really correct
				return (FALSE);
			}
		} //else if( data_ptr->
	} // while( byte_ptr < &buf + total_length
	return (FALSE);
 4001538:	0005883a 	mov	r2,zero
}
 400153c:	e037883a 	mov	sp,fp
 4001540:	dfc00117 	ldw	ra,4(sp)
 4001544:	df000017 	ldw	fp,0(sp)
 4001548:	dec00204 	addi	sp,sp,8
 400154c:	f800283a 	ret

04001550 <HIDKProbe>:
/* HID Keyboard probe. Called from USB state machine.                           */
/* assumes configuration length is less than 256 bytes                          */
/* looks for Class:03, Subclass: 01, Protocol: 01 in interface descriptor       */
/* sets keyboard in boot protocol                                               */
/* assumes single configuration, single endpoint, and interface configuration 0 */
BOOL HIDKProbe(BYTE addr, DWORD flags) {
 4001550:	defff204 	addi	sp,sp,-56
 4001554:	dfc00d15 	stw	ra,52(sp)
 4001558:	df000c15 	stw	fp,48(sp)
 400155c:	df000c04 	addi	fp,sp,48
 4001560:	2005883a 	mov	r2,r4
 4001564:	e17fff15 	stw	r5,-4(fp)
 4001568:	e0bffe05 	stb	r2,-8(fp)
	BYTE tmpbyte;
	BYTE rcode;
	BYTE confvalue;
	WORD total_length;
	USB_DESCR* data_ptr = (USB_DESCR *) &bigbuf;
 400156c:	008100b4 	movhi	r2,1026
 4001570:	10a43404 	addi	r2,r2,-28464
 4001574:	e0bffa15 	stw	r2,-24(fp)
	BYTE* byte_ptr = bigbuf;
 4001578:	008100b4 	movhi	r2,1026
 400157c:	10a43404 	addi	r2,r2,-28464
 4001580:	e0bffb15 	stw	r2,-20(fp)
	rcode = XferGetConfDescr(addr, 0, CONF_DESCR_LEN, 0, bigbuf); //get configuration descriptor
 4001584:	e0fffe03 	ldbu	r3,-8(fp)
 4001588:	008100b4 	movhi	r2,1026
 400158c:	10a43404 	addi	r2,r2,-28464
 4001590:	d8800415 	stw	r2,16(sp)
 4001594:	00800244 	movi	r2,9
 4001598:	d8800315 	stw	r2,12(sp)
 400159c:	d8000215 	stw	zero,8(sp)
 40015a0:	00800084 	movi	r2,2
 40015a4:	d8800115 	stw	r2,4(sp)
 40015a8:	d8000015 	stw	zero,0(sp)
 40015ac:	01c00184 	movi	r7,6
 40015b0:	01802004 	movi	r6,128
 40015b4:	000b883a 	mov	r5,zero
 40015b8:	1809883a 	mov	r4,r3
 40015bc:	40022380 	call	4002238 <XferCtrlReq>
 40015c0:	e0bffc05 	stb	r2,-16(fp)
	if (rcode) {   //error handling           
 40015c4:	e0bffc03 	ldbu	r2,-16(fp)
 40015c8:	10000226 	beq	r2,zero,40015d4 <HIDKProbe+0x84>
		return (FALSE);
 40015cc:	0005883a 	mov	r2,zero
 40015d0:	0000dc06 	br	4001944 <HIDKProbe+0x3f4>
	}
	if (data_ptr->descr.config.wTotalLength > 256) {
 40015d4:	e0bffa17 	ldw	r2,-24(fp)
 40015d8:	1080008b 	ldhu	r2,2(r2)
 40015dc:	10bfffcc 	andi	r2,r2,65535
 40015e0:	10804070 	cmpltui	r2,r2,257
 40015e4:	1000031e 	bne	r2,zero,40015f4 <HIDKProbe+0xa4>
		total_length = 256;
 40015e8:	00804004 	movi	r2,256
 40015ec:	e0bff90d 	sth	r2,-28(fp)
 40015f0:	00000306 	br	4001600 <HIDKProbe+0xb0>
	} else {
		total_length = data_ptr->descr.config.wTotalLength;
 40015f4:	e0bffa17 	ldw	r2,-24(fp)
 40015f8:	1080008b 	ldhu	r2,2(r2)
 40015fc:	e0bff90d 	sth	r2,-28(fp)
	}
	rcode = XferGetConfDescr(addr, 0, total_length, 0, bigbuf); //get the whole configuration
 4001600:	e13ffe03 	ldbu	r4,-8(fp)
 4001604:	e0fff90b 	ldhu	r3,-28(fp)
 4001608:	008100b4 	movhi	r2,1026
 400160c:	10a43404 	addi	r2,r2,-28464
 4001610:	d8800415 	stw	r2,16(sp)
 4001614:	d8c00315 	stw	r3,12(sp)
 4001618:	d8000215 	stw	zero,8(sp)
 400161c:	00800084 	movi	r2,2
 4001620:	d8800115 	stw	r2,4(sp)
 4001624:	d8000015 	stw	zero,0(sp)
 4001628:	01c00184 	movi	r7,6
 400162c:	01802004 	movi	r6,128
 4001630:	000b883a 	mov	r5,zero
 4001634:	40022380 	call	4002238 <XferCtrlReq>
 4001638:	e0bffc05 	stb	r2,-16(fp)
	if (rcode) {   //error handling
 400163c:	e0bffc03 	ldbu	r2,-16(fp)
 4001640:	10000226 	beq	r2,zero,400164c <HIDKProbe+0xfc>
		return (FALSE);
 4001644:	0005883a 	mov	r2,zero
 4001648:	0000be06 	br	4001944 <HIDKProbe+0x3f4>
	}
	confvalue = data_ptr->descr.config.bConfigurationValue; //save configuration value to use later
 400164c:	e0bffa17 	ldw	r2,-24(fp)
 4001650:	10800143 	ldbu	r2,5(r2)
 4001654:	e0bffc45 	stb	r2,-15(fp)
	while (byte_ptr < bigbuf + total_length) {             //parse configuration
 4001658:	0000b306 	br	4001928 <HIDKProbe+0x3d8>
		if (data_ptr->descr.config.bDescriptorType != USB_DESCRIPTOR_INTERFACE) { //skip to the next descriptor
 400165c:	e0bffa17 	ldw	r2,-24(fp)
 4001660:	10800043 	ldbu	r2,1(r2)
 4001664:	10803fcc 	andi	r2,r2,255
 4001668:	10800120 	cmpeqi	r2,r2,4
 400166c:	1000091e 	bne	r2,zero,4001694 <HIDKProbe+0x144>
			byte_ptr = byte_ptr + data_ptr->descr.config.bLength;
 4001670:	e0bffa17 	ldw	r2,-24(fp)
 4001674:	10800003 	ldbu	r2,0(r2)
 4001678:	10803fcc 	andi	r2,r2,255
 400167c:	e0fffb17 	ldw	r3,-20(fp)
 4001680:	1885883a 	add	r2,r3,r2
 4001684:	e0bffb15 	stw	r2,-20(fp)
			data_ptr = (USB_DESCR*) byte_ptr;
 4001688:	e0bffb17 	ldw	r2,-20(fp)
 400168c:	e0bffa15 	stw	r2,-24(fp)
 4001690:	0000a506 	br	4001928 <HIDKProbe+0x3d8>
		} // if( data_ptr->descr.config.bDescriptorType != USB_DESCRIPTOR_INTERFACE
		else {
			//printf("starting interface parsing at byte location %d\n",
			//		data_ptr->descr.config.bLength);
			BYTE class = data_ptr->descr.interface.bInterfaceClass;
 4001694:	e0bffa17 	ldw	r2,-24(fp)
 4001698:	10800143 	ldbu	r2,5(r2)
 400169c:	e0bffc85 	stb	r2,-14(fp)
			BYTE subclass = data_ptr->descr.interface.bInterfaceSubClass;
 40016a0:	e0bffa17 	ldw	r2,-24(fp)
 40016a4:	10800183 	ldbu	r2,6(r2)
 40016a8:	e0bffcc5 	stb	r2,-13(fp)
			BYTE protocol = data_ptr->descr.interface.bInterfaceProtocol;
 40016ac:	e0bffa17 	ldw	r2,-24(fp)
 40016b0:	108001c3 	ldbu	r2,7(r2)
 40016b4:	e0bffd05 	stb	r2,-12(fp)
			//printf("class %x, subclass %x, protocol %x,\n", class, subclass,
			//		protocol);
			//interface descriptor
			if (class == HID_INTF && subclass == BOOT_INTF_SUBCLASS
 40016b8:	e0bffc83 	ldbu	r2,-14(fp)
 40016bc:	108000d8 	cmpnei	r2,r2,3
 40016c0:	1000971e 	bne	r2,zero,4001920 <HIDKProbe+0x3d0>
 40016c4:	e0bffcc3 	ldbu	r2,-13(fp)
 40016c8:	10800058 	cmpnei	r2,r2,1
 40016cc:	1000941e 	bne	r2,zero,4001920 <HIDKProbe+0x3d0>
					&& protocol == HID_PROTOCOL_KEYBOARD) {
 40016d0:	e0bffd03 	ldbu	r2,-12(fp)
 40016d4:	10800058 	cmpnei	r2,r2,1
 40016d8:	1000911e 	bne	r2,zero,4001920 <HIDKProbe+0x3d0>
				//detected a keyboard
				devtable[addr].devclass = HID_K;             //fill device class
 40016dc:	e0fffe03 	ldbu	r3,-8(fp)
 40016e0:	008100b4 	movhi	r2,1026
 40016e4:	10a47404 	addi	r2,r2,-28208
 40016e8:	180690fa 	slli	r3,r3,3
 40016ec:	10c5883a 	add	r2,r2,r3
 40016f0:	10800104 	addi	r2,r2,4
 40016f4:	00c00044 	movi	r3,1
 40016f8:	10c00005 	stb	r3,0(r2)
				tmpbyte = devtable[addr].epinfo->MaxPktSize; //save max.packet size
 40016fc:	e0fffe03 	ldbu	r3,-8(fp)
 4001700:	008100b4 	movhi	r2,1026
 4001704:	10a47404 	addi	r2,r2,-28208
 4001708:	180690fa 	slli	r3,r3,3
 400170c:	10c5883a 	add	r2,r2,r3
 4001710:	10800017 	ldw	r2,0(r2)
 4001714:	1080008b 	ldhu	r2,2(r2)
 4001718:	e0bffd45 	stb	r2,-11(fp)
				HID_init();                         //initialize data structures
 400171c:	40019580 	call	4001958 <HID_init>
				devtable[addr].epinfo = hid_ep; //switch endpoint information structure
 4001720:	e0fffe03 	ldbu	r3,-8(fp)
 4001724:	008100b4 	movhi	r2,1026
 4001728:	10a47404 	addi	r2,r2,-28208
 400172c:	180690fa 	slli	r3,r3,3
 4001730:	10c7883a 	add	r3,r2,r3
 4001734:	008100b4 	movhi	r2,1026
 4001738:	10a42004 	addi	r2,r2,-28544
 400173c:	18800015 	stw	r2,0(r3)
				devtable[addr].epinfo[0].MaxPktSize = tmpbyte; //fill in max.packet size
 4001740:	e0fffe03 	ldbu	r3,-8(fp)
 4001744:	008100b4 	movhi	r2,1026
 4001748:	10a47404 	addi	r2,r2,-28208
 400174c:	180690fa 	slli	r3,r3,3
 4001750:	10c5883a 	add	r2,r2,r3
 4001754:	10800017 	ldw	r2,0(r2)
 4001758:	e0fffd43 	ldbu	r3,-11(fp)
 400175c:	10c0008d 	sth	r3,2(r2)
				hid_device.interface =
						data_ptr->descr.interface.bInterfaceNumber; //fill in interface number to be used in HID requests
 4001760:	e0bffa17 	ldw	r2,-24(fp)
 4001764:	10800083 	ldbu	r2,2(r2)
				devtable[addr].devclass = HID_K;             //fill device class
				tmpbyte = devtable[addr].epinfo->MaxPktSize; //save max.packet size
				HID_init();                         //initialize data structures
				devtable[addr].epinfo = hid_ep; //switch endpoint information structure
				devtable[addr].epinfo[0].MaxPktSize = tmpbyte; //fill in max.packet size
				hid_device.interface =
 4001768:	d0a6f745 	stb	r2,-25635(gp)
						data_ptr->descr.interface.bInterfaceNumber; //fill in interface number to be used in HID requests
				hid_device.addr = addr;                        //fill in address
 400176c:	e0bffe03 	ldbu	r2,-8(fp)
 4001770:	d0a6f705 	stb	r2,-25636(gp)
				byte_ptr = byte_ptr + data_ptr->descr.config.bLength; //skip to the next descriptor
 4001774:	e0bffa17 	ldw	r2,-24(fp)
 4001778:	10800003 	ldbu	r2,0(r2)
 400177c:	10803fcc 	andi	r2,r2,255
 4001780:	e0fffb17 	ldw	r3,-20(fp)
 4001784:	1885883a 	add	r2,r3,r2
 4001788:	e0bffb15 	stw	r2,-20(fp)
				data_ptr = (USB_DESCR*) byte_ptr;
 400178c:	e0bffb17 	ldw	r2,-20(fp)
 4001790:	e0bffa15 	stw	r2,-24(fp)
				while (byte_ptr < bigbuf + total_length) {
 4001794:	00005b06 	br	4001904 <HIDKProbe+0x3b4>
					if (data_ptr->descr.config.bDescriptorType
 4001798:	e0bffa17 	ldw	r2,-24(fp)
 400179c:	10800043 	ldbu	r2,1(r2)
 40017a0:	10803fcc 	andi	r2,r2,255
 40017a4:	10800160 	cmpeqi	r2,r2,5
 40017a8:	1000091e 	bne	r2,zero,40017d0 <HIDKProbe+0x280>
							!= USB_DESCRIPTOR_ENDPOINT) { //skip to endpoint descriptor
						byte_ptr = byte_ptr + data_ptr->descr.config.bLength;
 40017ac:	e0bffa17 	ldw	r2,-24(fp)
 40017b0:	10800003 	ldbu	r2,0(r2)
 40017b4:	10803fcc 	andi	r2,r2,255
 40017b8:	e0fffb17 	ldw	r3,-20(fp)
 40017bc:	1885883a 	add	r2,r3,r2
 40017c0:	e0bffb15 	stw	r2,-20(fp)
						data_ptr = (USB_DESCR*) byte_ptr;
 40017c4:	e0bffb17 	ldw	r2,-20(fp)
 40017c8:	e0bffa15 	stw	r2,-24(fp)
 40017cc:	00004d06 	br	4001904 <HIDKProbe+0x3b4>
					} else {
						/* fill endpoint information structure */
						devtable[addr].epinfo[1].epAddr =
 40017d0:	e0fffe03 	ldbu	r3,-8(fp)
 40017d4:	008100b4 	movhi	r2,1026
 40017d8:	10a47404 	addi	r2,r2,-28208
 40017dc:	180690fa 	slli	r3,r3,3
 40017e0:	10c5883a 	add	r2,r2,r3
 40017e4:	10800017 	ldw	r2,0(r2)
 40017e8:	10800204 	addi	r2,r2,8
								data_ptr->descr.endpoint.bEndpointAddress;
 40017ec:	e0fffa17 	ldw	r3,-24(fp)
 40017f0:	18c00083 	ldbu	r3,2(r3)
							!= USB_DESCRIPTOR_ENDPOINT) { //skip to endpoint descriptor
						byte_ptr = byte_ptr + data_ptr->descr.config.bLength;
						data_ptr = (USB_DESCR*) byte_ptr;
					} else {
						/* fill endpoint information structure */
						devtable[addr].epinfo[1].epAddr =
 40017f4:	10c00005 	stb	r3,0(r2)
								data_ptr->descr.endpoint.bEndpointAddress;
						devtable[addr].epinfo[1].Attr =
 40017f8:	e0fffe03 	ldbu	r3,-8(fp)
 40017fc:	008100b4 	movhi	r2,1026
 4001800:	10a47404 	addi	r2,r2,-28208
 4001804:	180690fa 	slli	r3,r3,3
 4001808:	10c5883a 	add	r2,r2,r3
 400180c:	10800017 	ldw	r2,0(r2)
 4001810:	10800204 	addi	r2,r2,8
								data_ptr->descr.endpoint.bmAttributes;
 4001814:	e0fffa17 	ldw	r3,-24(fp)
 4001818:	18c000c3 	ldbu	r3,3(r3)
						data_ptr = (USB_DESCR*) byte_ptr;
					} else {
						/* fill endpoint information structure */
						devtable[addr].epinfo[1].epAddr =
								data_ptr->descr.endpoint.bEndpointAddress;
						devtable[addr].epinfo[1].Attr =
 400181c:	10c00045 	stb	r3,1(r2)
								data_ptr->descr.endpoint.bmAttributes;
						devtable[addr].epinfo[1].MaxPktSize =
 4001820:	e0fffe03 	ldbu	r3,-8(fp)
 4001824:	008100b4 	movhi	r2,1026
 4001828:	10a47404 	addi	r2,r2,-28208
 400182c:	180690fa 	slli	r3,r3,3
 4001830:	10c5883a 	add	r2,r2,r3
 4001834:	10800017 	ldw	r2,0(r2)
 4001838:	10800204 	addi	r2,r2,8
								data_ptr->descr.endpoint.wMaxPacketSize;
 400183c:	e0fffa17 	ldw	r3,-24(fp)
 4001840:	18c0010b 	ldhu	r3,4(r3)
						/* fill endpoint information structure */
						devtable[addr].epinfo[1].epAddr =
								data_ptr->descr.endpoint.bEndpointAddress;
						devtable[addr].epinfo[1].Attr =
								data_ptr->descr.endpoint.bmAttributes;
						devtable[addr].epinfo[1].MaxPktSize =
 4001844:	10c0008d 	sth	r3,2(r2)
								data_ptr->descr.endpoint.wMaxPacketSize;
						devtable[addr].epinfo[1].Interval =
 4001848:	e0fffe03 	ldbu	r3,-8(fp)
 400184c:	008100b4 	movhi	r2,1026
 4001850:	10a47404 	addi	r2,r2,-28208
 4001854:	180690fa 	slli	r3,r3,3
 4001858:	10c5883a 	add	r2,r2,r3
 400185c:	10800017 	ldw	r2,0(r2)
 4001860:	10800204 	addi	r2,r2,8
								data_ptr->descr.endpoint.bInterval;
 4001864:	e0fffa17 	ldw	r3,-24(fp)
 4001868:	18c00183 	ldbu	r3,6(r3)
								data_ptr->descr.endpoint.bEndpointAddress;
						devtable[addr].epinfo[1].Attr =
								data_ptr->descr.endpoint.bmAttributes;
						devtable[addr].epinfo[1].MaxPktSize =
								data_ptr->descr.endpoint.wMaxPacketSize;
						devtable[addr].epinfo[1].Interval =
 400186c:	10c00105 	stb	r3,4(r2)
								data_ptr->descr.endpoint.bInterval;
						/* configure device */
						rcode = XferSetConf(addr, 0, confvalue); //set configuration
 4001870:	e0fffe03 	ldbu	r3,-8(fp)
 4001874:	e0bffc43 	ldbu	r2,-15(fp)
 4001878:	d8000415 	stw	zero,16(sp)
 400187c:	d8000315 	stw	zero,12(sp)
 4001880:	d8000215 	stw	zero,8(sp)
 4001884:	d8000115 	stw	zero,4(sp)
 4001888:	d8800015 	stw	r2,0(sp)
 400188c:	01c00244 	movi	r7,9
 4001890:	000d883a 	mov	r6,zero
 4001894:	000b883a 	mov	r5,zero
 4001898:	1809883a 	mov	r4,r3
 400189c:	40022380 	call	4002238 <XferCtrlReq>
 40018a0:	e0bffc05 	stb	r2,-16(fp)
						if (rcode) {   //error handling
 40018a4:	e0bffc03 	ldbu	r2,-16(fp)
 40018a8:	10000226 	beq	r2,zero,40018b4 <HIDKProbe+0x364>
							return (FALSE);
 40018ac:	0005883a 	mov	r2,zero
 40018b0:	00002406 	br	4001944 <HIDKProbe+0x3f4>
						}
						rcode = XferSetProto(addr, 0, hid_device.interface,
 40018b4:	e0fffe03 	ldbu	r3,-8(fp)
 40018b8:	d0a6f743 	ldbu	r2,-25635(gp)
 40018bc:	10803fcc 	andi	r2,r2,255
 40018c0:	d8000415 	stw	zero,16(sp)
 40018c4:	d8000315 	stw	zero,12(sp)
 40018c8:	d8800215 	stw	r2,8(sp)
 40018cc:	d8000115 	stw	zero,4(sp)
 40018d0:	d8000015 	stw	zero,0(sp)
 40018d4:	01c002c4 	movi	r7,11
 40018d8:	01800844 	movi	r6,33
 40018dc:	000b883a 	mov	r5,zero
 40018e0:	1809883a 	mov	r4,r3
 40018e4:	40022380 	call	4002238 <XferCtrlReq>
 40018e8:	e0bffc05 	stb	r2,-16(fp)
								BOOT_PROTOCOL);
						if (rcode) {   //error handling
 40018ec:	e0bffc03 	ldbu	r2,-16(fp)
 40018f0:	10000226 	beq	r2,zero,40018fc <HIDKProbe+0x3ac>
							return (FALSE);
 40018f4:	0005883a 	mov	r2,zero
 40018f8:	00001206 	br	4001944 <HIDKProbe+0x3f4>
						} else {
							return (TRUE);
 40018fc:	00800044 	movi	r2,1
 4001900:	00001006 	br	4001944 <HIDKProbe+0x3f4>
				hid_device.interface =
						data_ptr->descr.interface.bInterfaceNumber; //fill in interface number to be used in HID requests
				hid_device.addr = addr;                        //fill in address
				byte_ptr = byte_ptr + data_ptr->descr.config.bLength; //skip to the next descriptor
				data_ptr = (USB_DESCR*) byte_ptr;
				while (byte_ptr < bigbuf + total_length) {
 4001904:	e0fff90b 	ldhu	r3,-28(fp)
 4001908:	008100b4 	movhi	r2,1026
 400190c:	10a43404 	addi	r2,r2,-28464
 4001910:	1885883a 	add	r2,r3,r2
 4001914:	e0fffb17 	ldw	r3,-20(fp)
 4001918:	18bf9f36 	bltu	r3,r2,4001798 <__alt_data_end+0xfc001798>
			BYTE subclass = data_ptr->descr.interface.bInterfaceSubClass;
			BYTE protocol = data_ptr->descr.interface.bInterfaceProtocol;
			//printf("class %x, subclass %x, protocol %x,\n", class, subclass,
			//		protocol);
			//interface descriptor
			if (class == HID_INTF && subclass == BOOT_INTF_SUBCLASS
 400191c:	00000206 	br	4001928 <HIDKProbe+0x3d8>
						}
					}
				}   //while( byte_ptr....
			}   //if (Class matches
			else { //if class don't match; stop processing after first interface. Not really correct
				return (FALSE);
 4001920:	0005883a 	mov	r2,zero
 4001924:	00000706 	br	4001944 <HIDKProbe+0x3f4>
	rcode = XferGetConfDescr(addr, 0, total_length, 0, bigbuf); //get the whole configuration
	if (rcode) {   //error handling
		return (FALSE);
	}
	confvalue = data_ptr->descr.config.bConfigurationValue; //save configuration value to use later
	while (byte_ptr < bigbuf + total_length) {             //parse configuration
 4001928:	e0fff90b 	ldhu	r3,-28(fp)
 400192c:	008100b4 	movhi	r2,1026
 4001930:	10a43404 	addi	r2,r2,-28464
 4001934:	1885883a 	add	r2,r3,r2
 4001938:	e0fffb17 	ldw	r3,-20(fp)
 400193c:	18bf4736 	bltu	r3,r2,400165c <__alt_data_end+0xfc00165c>
			else { //if class don't match; stop processing after first interface. Not really correct
				return (FALSE);
			}
		} //else if( data_ptr->
	} // while( byte_ptr < &buf + total_length
	return (FALSE);
 4001940:	0005883a 	mov	r2,zero
}
 4001944:	e037883a 	mov	sp,fp
 4001948:	dfc00117 	ldw	ra,4(sp)
 400194c:	df000017 	ldw	fp,0(sp)
 4001950:	dec00204 	addi	sp,sp,8
 4001954:	f800283a 	ret

04001958 <HID_init>:
/* HID data structures initialization */
void HID_init(void) {
 4001958:	deffff04 	addi	sp,sp,-4
 400195c:	df000015 	stw	fp,0(sp)
 4001960:	d839883a 	mov	fp,sp
	hid_ep[1].sndToggle = bmSNDTOG0;
 4001964:	008100b4 	movhi	r2,1026
 4001968:	10a42004 	addi	r2,r2,-28544
 400196c:	00c01004 	movi	r3,64
 4001970:	10c00345 	stb	r3,13(r2)
	hid_ep[1].rcvToggle = bmRCVTOG0;
 4001974:	008100b4 	movhi	r2,1026
 4001978:	10a42004 	addi	r2,r2,-28544
 400197c:	00c00404 	movi	r3,16
 4001980:	10c00385 	stb	r3,14(r2)
}
 4001984:	0001883a 	nop
 4001988:	e037883a 	mov	sp,fp
 400198c:	df000017 	ldw	fp,0(sp)
 4001990:	dec00104 	addi	sp,sp,4
 4001994:	f800283a 	ret

04001998 <mousePoll>:
/* poll boot mouse */
BYTE mousePoll(BOOT_MOUSE_REPORT* buf) {
 4001998:	defffb04 	addi	sp,sp,-20
 400199c:	dfc00415 	stw	ra,16(sp)
 40019a0:	df000315 	stw	fp,12(sp)
 40019a4:	df000304 	addi	fp,sp,12
 40019a8:	e13fff15 	stw	r4,-4(fp)
	BYTE rcode;
	MAXreg_wr( rPERADDR, hid_device.addr);    //set peripheral address
 40019ac:	d0a6f703 	ldbu	r2,-25636(gp)
 40019b0:	10803fcc 	andi	r2,r2,255
 40019b4:	100b883a 	mov	r5,r2
 40019b8:	01003804 	movi	r4,224
 40019bc:	4001b740 	call	4001b74 <MAXreg_wr>
	rcode = XferInTransfer(hid_device.addr, 1, 8, (BYTE*) buf,
 40019c0:	d0a6f703 	ldbu	r2,-25636(gp)
 40019c4:	11003fcc 	andi	r4,r2,255
			devtable[hid_device.addr].epinfo[1].MaxPktSize);
 40019c8:	d0a6f703 	ldbu	r2,-25636(gp)
 40019cc:	10c03fcc 	andi	r3,r2,255
 40019d0:	008100b4 	movhi	r2,1026
 40019d4:	10a47404 	addi	r2,r2,-28208
 40019d8:	180690fa 	slli	r3,r3,3
 40019dc:	10c5883a 	add	r2,r2,r3
 40019e0:	10800017 	ldw	r2,0(r2)
 40019e4:	10800204 	addi	r2,r2,8
 40019e8:	1080008b 	ldhu	r2,2(r2)
}
/* poll boot mouse */
BYTE mousePoll(BOOT_MOUSE_REPORT* buf) {
	BYTE rcode;
	MAXreg_wr( rPERADDR, hid_device.addr);    //set peripheral address
	rcode = XferInTransfer(hid_device.addr, 1, 8, (BYTE*) buf,
 40019ec:	10803fcc 	andi	r2,r2,255
 40019f0:	d8800015 	stw	r2,0(sp)
 40019f4:	e1ffff17 	ldw	r7,-4(fp)
 40019f8:	01800204 	movi	r6,8
 40019fc:	01400044 	movi	r5,1
 4001a00:	40026440 	call	4002644 <XferInTransfer>
 4001a04:	e0bffe05 	stb	r2,-8(fp)
			devtable[hid_device.addr].epinfo[1].MaxPktSize);
	return (rcode);
 4001a08:	e0bffe03 	ldbu	r2,-8(fp)
}
 4001a0c:	e037883a 	mov	sp,fp
 4001a10:	dfc00117 	ldw	ra,4(sp)
 4001a14:	df000017 	ldw	fp,0(sp)
 4001a18:	dec00204 	addi	sp,sp,8
 4001a1c:	f800283a 	ret

04001a20 <kbdPoll>:
/* poll boot keyboard */
BYTE kbdPoll(BOOT_KBD_REPORT* buf) {
 4001a20:	defffb04 	addi	sp,sp,-20
 4001a24:	dfc00415 	stw	ra,16(sp)
 4001a28:	df000315 	stw	fp,12(sp)
 4001a2c:	df000304 	addi	fp,sp,12
 4001a30:	e13fff15 	stw	r4,-4(fp)
	BYTE rcode;
	MAXreg_wr( rPERADDR, hid_device.addr);    //set peripheral address
 4001a34:	d0a6f703 	ldbu	r2,-25636(gp)
 4001a38:	10803fcc 	andi	r2,r2,255
 4001a3c:	100b883a 	mov	r5,r2
 4001a40:	01003804 	movi	r4,224
 4001a44:	4001b740 	call	4001b74 <MAXreg_wr>
	rcode = XferInTransfer(hid_device.addr, 1, 8, (BYTE*) buf,
 4001a48:	d0a6f703 	ldbu	r2,-25636(gp)
 4001a4c:	11003fcc 	andi	r4,r2,255
			devtable[hid_device.addr].epinfo[1].MaxPktSize);
 4001a50:	d0a6f703 	ldbu	r2,-25636(gp)
 4001a54:	10c03fcc 	andi	r3,r2,255
 4001a58:	008100b4 	movhi	r2,1026
 4001a5c:	10a47404 	addi	r2,r2,-28208
 4001a60:	180690fa 	slli	r3,r3,3
 4001a64:	10c5883a 	add	r2,r2,r3
 4001a68:	10800017 	ldw	r2,0(r2)
 4001a6c:	10800204 	addi	r2,r2,8
 4001a70:	1080008b 	ldhu	r2,2(r2)
}
/* poll boot keyboard */
BYTE kbdPoll(BOOT_KBD_REPORT* buf) {
	BYTE rcode;
	MAXreg_wr( rPERADDR, hid_device.addr);    //set peripheral address
	rcode = XferInTransfer(hid_device.addr, 1, 8, (BYTE*) buf,
 4001a74:	10803fcc 	andi	r2,r2,255
 4001a78:	d8800015 	stw	r2,0(sp)
 4001a7c:	e1ffff17 	ldw	r7,-4(fp)
 4001a80:	01800204 	movi	r6,8
 4001a84:	01400044 	movi	r5,1
 4001a88:	40026440 	call	4002644 <XferInTransfer>
 4001a8c:	e0bffe05 	stb	r2,-8(fp)
			devtable[hid_device.addr].epinfo[1].MaxPktSize);
	return (rcode);
 4001a90:	e0bffe03 	ldbu	r2,-8(fp)
}
 4001a94:	e037883a 	mov	sp,fp
 4001a98:	dfc00117 	ldw	ra,4(sp)
 4001a9c:	df000017 	ldw	fp,0(sp)
 4001aa0:	dec00204 	addi	sp,sp,8
 4001aa4:	f800283a 	ret

04001aa8 <HIDMEventHandler>:
BOOL HIDMEventHandler(BYTE address, BYTE event, void *data, DWORD size) {
 4001aa8:	defffb04 	addi	sp,sp,-20
 4001aac:	df000415 	stw	fp,16(sp)
 4001ab0:	df000404 	addi	fp,sp,16
 4001ab4:	2007883a 	mov	r3,r4
 4001ab8:	2805883a 	mov	r2,r5
 4001abc:	e1bffe15 	stw	r6,-8(fp)
 4001ac0:	e1ffff15 	stw	r7,-4(fp)
 4001ac4:	e0fffc05 	stb	r3,-16(fp)
 4001ac8:	e0bffd05 	stb	r2,-12(fp)
	return (FALSE);
 4001acc:	0005883a 	mov	r2,zero
}
 4001ad0:	e037883a 	mov	sp,fp
 4001ad4:	df000017 	ldw	fp,0(sp)
 4001ad8:	dec00104 	addi	sp,sp,4
 4001adc:	f800283a 	ret

04001ae0 <HIDKEventHandler>:
BOOL HIDKEventHandler(BYTE address, BYTE event, void *data, DWORD size) {
 4001ae0:	defffb04 	addi	sp,sp,-20
 4001ae4:	df000415 	stw	fp,16(sp)
 4001ae8:	df000404 	addi	fp,sp,16
 4001aec:	2007883a 	mov	r3,r4
 4001af0:	2805883a 	mov	r2,r5
 4001af4:	e1bffe15 	stw	r6,-8(fp)
 4001af8:	e1ffff15 	stw	r7,-4(fp)
 4001afc:	e0fffc05 	stb	r3,-16(fp)
 4001b00:	e0bffd05 	stb	r2,-12(fp)
	return (FALSE);
 4001b04:	0005883a 	mov	r2,zero
}
 4001b08:	e037883a 	mov	sp,fp
 4001b0c:	df000017 	ldw	fp,0(sp)
 4001b10:	dec00104 	addi	sp,sp,4
 4001b14:	f800283a 	ret

04001b18 <SPI_init>:
//variables and data structures
//External variables
extern BYTE usb_task_state;

/* Functions    */
void SPI_init(BYTE sync_mode, BYTE bus_mode, BYTE smp_phase) {
 4001b18:	defffc04 	addi	sp,sp,-16
 4001b1c:	df000315 	stw	fp,12(sp)
 4001b20:	df000304 	addi	fp,sp,12
 4001b24:	2807883a 	mov	r3,r5
 4001b28:	3005883a 	mov	r2,r6
 4001b2c:	e13ffd05 	stb	r4,-12(fp)
 4001b30:	e0fffe05 	stb	r3,-8(fp)
 4001b34:	e0bfff05 	stb	r2,-4(fp)
	//Don't need to initialize SPI port, already ready to go with BSP
}
 4001b38:	0001883a 	nop
 4001b3c:	e037883a 	mov	sp,fp
 4001b40:	df000017 	ldw	fp,0(sp)
 4001b44:	dec00104 	addi	sp,sp,4
 4001b48:	f800283a 	ret

04001b4c <SPI_wr>:

//writes single byte to MAX3421E via SPI, simultanously reads status register and returns it
BYTE SPI_wr(BYTE data) {
 4001b4c:	defffe04 	addi	sp,sp,-8
 4001b50:	df000115 	stw	fp,4(sp)
 4001b54:	df000104 	addi	fp,sp,4
 4001b58:	2005883a 	mov	r2,r4
 4001b5c:	e0bfff05 	stb	r2,-4(fp)
	//This function is never used by the code, so you do not need to fill it in
}
 4001b60:	0001883a 	nop
 4001b64:	e037883a 	mov	sp,fp
 4001b68:	df000017 	ldw	fp,0(sp)
 4001b6c:	dec00104 	addi	sp,sp,4
 4001b70:	f800283a 	ret

04001b74 <MAXreg_wr>:
//writes register to MAX3421E via SPI
int SPIBase = 0x8001160;
void MAXreg_wr(BYTE reg, BYTE val) {
 4001b74:	defff804 	addi	sp,sp,-32
 4001b78:	dfc00715 	stw	ra,28(sp)
 4001b7c:	df000615 	stw	fp,24(sp)
 4001b80:	df000604 	addi	fp,sp,24
 4001b84:	2007883a 	mov	r3,r4
 4001b88:	2805883a 	mov	r2,r5
 4001b8c:	e0fffe05 	stb	r3,-8(fp)
 4001b90:	e0bfff05 	stb	r2,-4(fp)
	//write val via SPI
	//read return code from SPI peripheral (see Intel documentation) 
	//if return code < 0 print an error
	//deselect MAX3421E (may not be necessary if you are using SPI peripheral)

	BYTE Tx[2] = {reg + 2, val};
 4001b94:	e0bffe03 	ldbu	r2,-8(fp)
 4001b98:	10800084 	addi	r2,r2,2
 4001b9c:	e0bffd05 	stb	r2,-12(fp)
 4001ba0:	e0bfff03 	ldbu	r2,-4(fp)
 4001ba4:	e0bffd45 	stb	r2,-11(fp)

	if(alt_avalon_spi_command(SPIBase, 0, 2, Tx, 0, 0, 0) < 0){
 4001ba8:	d0a00317 	ldw	r2,-32756(gp)
 4001bac:	d8000215 	stw	zero,8(sp)
 4001bb0:	d8000115 	stw	zero,4(sp)
 4001bb4:	d8000015 	stw	zero,0(sp)
 4001bb8:	e1fffd04 	addi	r7,fp,-12
 4001bbc:	01800084 	movi	r6,2
 4001bc0:	000b883a 	mov	r5,zero
 4001bc4:	1009883a 	mov	r4,r2
 4001bc8:	401379c0 	call	401379c <alt_avalon_spi_command>
 4001bcc:	1000040e 	bge	r2,zero,4001be0 <MAXreg_wr+0x6c>
		printf("MAXreg_wr error");
 4001bd0:	01010074 	movhi	r4,1025
 4001bd4:	21154c04 	addi	r4,r4,21808
 4001bd8:	40047b80 	call	40047b8 <printf>
	}
	return;
 4001bdc:	0001883a 	nop
 4001be0:	0001883a 	nop
}
 4001be4:	e037883a 	mov	sp,fp
 4001be8:	dfc00117 	ldw	ra,4(sp)
 4001bec:	df000017 	ldw	fp,0(sp)
 4001bf0:	dec00204 	addi	sp,sp,8
 4001bf4:	f800283a 	ret

04001bf8 <MAXbytes_wr>:
//multiple-byte write
//returns a pointer to a memory position after last written
BYTE* MAXbytes_wr(BYTE reg, BYTE nbytes, BYTE* data) {
 4001bf8:	defff604 	addi	sp,sp,-40
 4001bfc:	dfc00915 	stw	ra,36(sp)
 4001c00:	df000815 	stw	fp,32(sp)
 4001c04:	df000804 	addi	fp,sp,32
 4001c08:	2007883a 	mov	r3,r4
 4001c0c:	2805883a 	mov	r2,r5
 4001c10:	e1bfff15 	stw	r6,-4(fp)
 4001c14:	e0fffd05 	stb	r3,-12(fp)
 4001c18:	e0bffe05 	stb	r2,-8(fp)
	//write data[n] via SPI, where n goes from 0 to nbytes-1
	//read return code from SPI peripheral (see Intel documentation) 
	//if return code < 0  print an error
	//deselect MAX3421E (may not be necessary if you are using SPI peripheral)
	//return (data + nbytes);
	BYTE *Tx = malloc(nbytes + 1);
 4001c1c:	e0bffe03 	ldbu	r2,-8(fp)
 4001c20:	10800044 	addi	r2,r2,1
 4001c24:	1009883a 	mov	r4,r2
 4001c28:	4003e0c0 	call	4003e0c <malloc>
 4001c2c:	e0bffc15 	stw	r2,-16(fp)
	Tx[0] = reg + 2;
 4001c30:	e0bffd03 	ldbu	r2,-12(fp)
 4001c34:	10800084 	addi	r2,r2,2
 4001c38:	1007883a 	mov	r3,r2
 4001c3c:	e0bffc17 	ldw	r2,-16(fp)
 4001c40:	10c00005 	stb	r3,0(r2)
	int i = 0;
 4001c44:	e03ffb15 	stw	zero,-20(fp)
	for(i = 0; i < nbytes; i++){
 4001c48:	e03ffb15 	stw	zero,-20(fp)
 4001c4c:	00000c06 	br	4001c80 <MAXbytes_wr+0x88>
		Tx[i + 1] = data[i];
 4001c50:	e0bffb17 	ldw	r2,-20(fp)
 4001c54:	10800044 	addi	r2,r2,1
 4001c58:	e0fffc17 	ldw	r3,-16(fp)
 4001c5c:	1885883a 	add	r2,r3,r2
 4001c60:	e0fffb17 	ldw	r3,-20(fp)
 4001c64:	e13fff17 	ldw	r4,-4(fp)
 4001c68:	20c7883a 	add	r3,r4,r3
 4001c6c:	18c00003 	ldbu	r3,0(r3)
 4001c70:	10c00005 	stb	r3,0(r2)
	//deselect MAX3421E (may not be necessary if you are using SPI peripheral)
	//return (data + nbytes);
	BYTE *Tx = malloc(nbytes + 1);
	Tx[0] = reg + 2;
	int i = 0;
	for(i = 0; i < nbytes; i++){
 4001c74:	e0bffb17 	ldw	r2,-20(fp)
 4001c78:	10800044 	addi	r2,r2,1
 4001c7c:	e0bffb15 	stw	r2,-20(fp)
 4001c80:	e0bffe03 	ldbu	r2,-8(fp)
 4001c84:	e0fffb17 	ldw	r3,-20(fp)
 4001c88:	18bff116 	blt	r3,r2,4001c50 <__alt_data_end+0xfc001c50>
		Tx[i + 1] = data[i];
	}

	if(alt_avalon_spi_command(SPIBase, 0, nbytes + 1, Tx, 0, 0, 0) < 0){
 4001c8c:	d0a00317 	ldw	r2,-32756(gp)
 4001c90:	1007883a 	mov	r3,r2
 4001c94:	e0bffe03 	ldbu	r2,-8(fp)
 4001c98:	10800044 	addi	r2,r2,1
 4001c9c:	d8000215 	stw	zero,8(sp)
 4001ca0:	d8000115 	stw	zero,4(sp)
 4001ca4:	d8000015 	stw	zero,0(sp)
 4001ca8:	e1fffc17 	ldw	r7,-16(fp)
 4001cac:	100d883a 	mov	r6,r2
 4001cb0:	000b883a 	mov	r5,zero
 4001cb4:	1809883a 	mov	r4,r3
 4001cb8:	401379c0 	call	401379c <alt_avalon_spi_command>
 4001cbc:	1000030e 	bge	r2,zero,4001ccc <MAXbytes_wr+0xd4>
		printf("MAXbytes_wr error");
 4001cc0:	01010074 	movhi	r4,1025
 4001cc4:	21155004 	addi	r4,r4,21824
 4001cc8:	40047b80 	call	40047b8 <printf>
	}

	free(Tx);
 4001ccc:	e13ffc17 	ldw	r4,-16(fp)
 4001cd0:	4003e200 	call	4003e20 <free>
	return (data + nbytes);
 4001cd4:	e0bffe03 	ldbu	r2,-8(fp)
 4001cd8:	e0ffff17 	ldw	r3,-4(fp)
 4001cdc:	1885883a 	add	r2,r3,r2
}
 4001ce0:	e037883a 	mov	sp,fp
 4001ce4:	dfc00117 	ldw	ra,4(sp)
 4001ce8:	df000017 	ldw	fp,0(sp)
 4001cec:	dec00204 	addi	sp,sp,8
 4001cf0:	f800283a 	ret

04001cf4 <MAXreg_rd>:

//reads register from MAX3421E via SPI
BYTE MAXreg_rd(BYTE reg) {
 4001cf4:	defff904 	addi	sp,sp,-28
 4001cf8:	dfc00615 	stw	ra,24(sp)
 4001cfc:	df000515 	stw	fp,20(sp)
 4001d00:	df000504 	addi	fp,sp,20
 4001d04:	2005883a 	mov	r2,r4
 4001d08:	e0bfff05 	stb	r2,-4(fp)
	//if return code < 0 print an error
	//deselect MAX3421E (may not be necessary if you are using SPI peripheral)
	//return val
	BYTE val;

	if(alt_avalon_spi_command(SPIBase, 0, 1, &reg, 1, &val, 0) < 0){
 4001d0c:	d0a00317 	ldw	r2,-32756(gp)
 4001d10:	1009883a 	mov	r4,r2
 4001d14:	e0ffff04 	addi	r3,fp,-4
 4001d18:	d8000215 	stw	zero,8(sp)
 4001d1c:	e0bffe04 	addi	r2,fp,-8
 4001d20:	d8800115 	stw	r2,4(sp)
 4001d24:	00800044 	movi	r2,1
 4001d28:	d8800015 	stw	r2,0(sp)
 4001d2c:	180f883a 	mov	r7,r3
 4001d30:	01800044 	movi	r6,1
 4001d34:	000b883a 	mov	r5,zero
 4001d38:	401379c0 	call	401379c <alt_avalon_spi_command>
 4001d3c:	1000030e 	bge	r2,zero,4001d4c <MAXreg_rd+0x58>
		printf("MAXreg_rd error");
 4001d40:	01010074 	movhi	r4,1025
 4001d44:	21155504 	addi	r4,r4,21844
 4001d48:	40047b80 	call	40047b8 <printf>
	}
	return val;
 4001d4c:	e0bffe03 	ldbu	r2,-8(fp)
}
 4001d50:	e037883a 	mov	sp,fp
 4001d54:	dfc00117 	ldw	ra,4(sp)
 4001d58:	df000017 	ldw	fp,0(sp)
 4001d5c:	dec00204 	addi	sp,sp,8
 4001d60:	f800283a 	ret

04001d64 <MAXbytes_rd>:
//multiple-byte write
//returns a pointer to a memory position after last written
BYTE* MAXbytes_rd(BYTE reg, BYTE nbytes, BYTE* data) {
 4001d64:	defff804 	addi	sp,sp,-32
 4001d68:	dfc00715 	stw	ra,28(sp)
 4001d6c:	df000615 	stw	fp,24(sp)
 4001d70:	df000604 	addi	fp,sp,24
 4001d74:	2007883a 	mov	r3,r4
 4001d78:	2805883a 	mov	r2,r5
 4001d7c:	e1bfff15 	stw	r6,-4(fp)
 4001d80:	e0fffd05 	stb	r3,-12(fp)
 4001d84:	e0bffe05 	stb	r2,-8(fp)
	//read return code from SPI peripheral (see Intel documentation)
	//if return code < 0 print an error
	//deselect MAX3421E (may not be necessary if you are using SPI peripheral)
	//return (data + nbytes);

	if(alt_avalon_spi_command(SPIBase, 0, 1, &reg, nbytes, data, 0) < 0){
 4001d88:	d0a00317 	ldw	r2,-32756(gp)
 4001d8c:	1009883a 	mov	r4,r2
 4001d90:	e0bffe03 	ldbu	r2,-8(fp)
 4001d94:	d8000215 	stw	zero,8(sp)
 4001d98:	e0ffff17 	ldw	r3,-4(fp)
 4001d9c:	d8c00115 	stw	r3,4(sp)
 4001da0:	d8800015 	stw	r2,0(sp)
 4001da4:	e1fffd04 	addi	r7,fp,-12
 4001da8:	01800044 	movi	r6,1
 4001dac:	000b883a 	mov	r5,zero
 4001db0:	401379c0 	call	401379c <alt_avalon_spi_command>
 4001db4:	1000030e 	bge	r2,zero,4001dc4 <MAXbytes_rd+0x60>
		printf("MAXbytes_rd error");
 4001db8:	01010074 	movhi	r4,1025
 4001dbc:	21155904 	addi	r4,r4,21860
 4001dc0:	40047b80 	call	40047b8 <printf>
	}
	return (data + nbytes);
 4001dc4:	e0bffe03 	ldbu	r2,-8(fp)
 4001dc8:	e0ffff17 	ldw	r3,-4(fp)
 4001dcc:	1885883a 	add	r2,r3,r2
}
 4001dd0:	e037883a 	mov	sp,fp
 4001dd4:	dfc00117 	ldw	ra,4(sp)
 4001dd8:	df000017 	ldw	fp,0(sp)
 4001ddc:	dec00204 	addi	sp,sp,8
 4001de0:	f800283a 	ret

04001de4 <MAX3421E_reset>:
/* reset MAX3421E using chip reset bit. SPI configuration is not affected   */
void MAX3421E_reset(void) {
 4001de4:	defffd04 	addi	sp,sp,-12
 4001de8:	dfc00215 	stw	ra,8(sp)
 4001dec:	df000115 	stw	fp,4(sp)
 4001df0:	df000104 	addi	fp,sp,4
	//hardware reset, then software reset
	IOWR_ALTERA_AVALON_PIO_DATA(USB_RST_BASE, 0);
 4001df4:	0007883a 	mov	r3,zero
 4001df8:	00820034 	movhi	r2,2048
 4001dfc:	10848404 	addi	r2,r2,4624
 4001e00:	10c00035 	stwio	r3,0(r2)
	usleep(1000000);
 4001e04:	010003f4 	movhi	r4,15
 4001e08:	21109004 	addi	r4,r4,16960
 4001e0c:	4010ef00 	call	4010ef0 <usleep>
	IOWR_ALTERA_AVALON_PIO_DATA(USB_RST_BASE, 1);
 4001e10:	00c00044 	movi	r3,1
 4001e14:	00820034 	movhi	r2,2048
 4001e18:	10848404 	addi	r2,r2,4624
 4001e1c:	10c00035 	stwio	r3,0(r2)
	BYTE tmp = 0;
 4001e20:	e03fff05 	stb	zero,-4(fp)
	MAXreg_wr( rUSBCTL, bmCHIPRES);      //Chip reset. This stops the oscillator
 4001e24:	01400804 	movi	r5,32
 4001e28:	01001e04 	movi	r4,120
 4001e2c:	4001b740 	call	4001b74 <MAXreg_wr>
	MAXreg_wr( rUSBCTL, 0x00);                          //Remove the reset
 4001e30:	000b883a 	mov	r5,zero
 4001e34:	01001e04 	movi	r4,120
 4001e38:	4001b740 	call	4001b74 <MAXreg_wr>
	while (!(MAXreg_rd( rUSBIRQ) & bmOSCOKIRQ)) { //wait until the PLL stabilizes
 4001e3c:	00000806 	br	4001e60 <MAX3421E_reset+0x7c>
		tmp++;                                      //timeout after 256 attempts
 4001e40:	e0bfff03 	ldbu	r2,-4(fp)
 4001e44:	10800044 	addi	r2,r2,1
 4001e48:	e0bfff05 	stb	r2,-4(fp)
		if (tmp == 0) {
 4001e4c:	e0bfff03 	ldbu	r2,-4(fp)
 4001e50:	1000031e 	bne	r2,zero,4001e60 <MAX3421E_reset+0x7c>
			printf("reset timeout!");
 4001e54:	01010074 	movhi	r4,1025
 4001e58:	21155e04 	addi	r4,r4,21880
 4001e5c:	40047b80 	call	40047b8 <printf>
	usleep(1000000);
	IOWR_ALTERA_AVALON_PIO_DATA(USB_RST_BASE, 1);
	BYTE tmp = 0;
	MAXreg_wr( rUSBCTL, bmCHIPRES);      //Chip reset. This stops the oscillator
	MAXreg_wr( rUSBCTL, 0x00);                          //Remove the reset
	while (!(MAXreg_rd( rUSBIRQ) & bmOSCOKIRQ)) { //wait until the PLL stabilizes
 4001e60:	01001a04 	movi	r4,104
 4001e64:	4001cf40 	call	4001cf4 <MAXreg_rd>
 4001e68:	10803fcc 	andi	r2,r2,255
 4001e6c:	1080004c 	andi	r2,r2,1
 4001e70:	103ff326 	beq	r2,zero,4001e40 <__alt_data_end+0xfc001e40>
		tmp++;                                      //timeout after 256 attempts
		if (tmp == 0) {
			printf("reset timeout!");
		}
	}
}
 4001e74:	0001883a 	nop
 4001e78:	e037883a 	mov	sp,fp
 4001e7c:	dfc00117 	ldw	ra,4(sp)
 4001e80:	df000017 	ldw	fp,0(sp)
 4001e84:	dec00204 	addi	sp,sp,8
 4001e88:	f800283a 	ret

04001e8c <Vbus_power>:
/* turn USB power on/off                                                */
/* ON pin of VBUS switch (MAX4793 or similar) is connected to GPOUT7    */
/* OVERLOAD pin of Vbus switch is connected to GPIN7                    */
/* OVERLOAD state low. NO OVERLOAD or VBUS OFF state high.              */
BOOL Vbus_power(BOOL action) {
 4001e8c:	defffe04 	addi	sp,sp,-8
 4001e90:	df000115 	stw	fp,4(sp)
 4001e94:	df000104 	addi	fp,sp,4
 4001e98:	e13fff15 	stw	r4,-4(fp)
	// power on/off successful
	return (1);
 4001e9c:	00800044 	movi	r2,1
}
 4001ea0:	e037883a 	mov	sp,fp
 4001ea4:	df000017 	ldw	fp,0(sp)
 4001ea8:	dec00104 	addi	sp,sp,4
 4001eac:	f800283a 	ret

04001eb0 <MAX_busprobe>:

/* probe bus to determine device presense and speed */
void MAX_busprobe(void) {
 4001eb0:	defffd04 	addi	sp,sp,-12
 4001eb4:	dfc00215 	stw	ra,8(sp)
 4001eb8:	df000115 	stw	fp,4(sp)
 4001ebc:	df000104 	addi	fp,sp,4
	BYTE bus_sample;

//  MAXreg_wr(rHCTL,bmSAMPLEBUS);
	bus_sample = MAXreg_rd( rHRSL);            //Get J,K status
 4001ec0:	01003e04 	movi	r4,248
 4001ec4:	4001cf40 	call	4001cf4 <MAXreg_rd>
 4001ec8:	e0bfff05 	stb	r2,-4(fp)
	bus_sample &= ( bmJSTATUS | bmKSTATUS);      //zero the rest of the byte
 4001ecc:	e0ffff03 	ldbu	r3,-4(fp)
 4001ed0:	00bff004 	movi	r2,-64
 4001ed4:	1884703a 	and	r2,r3,r2
 4001ed8:	e0bfff05 	stb	r2,-4(fp)

	switch (bus_sample) {                   //start full-speed or low-speed host
 4001edc:	e0bfff03 	ldbu	r2,-4(fp)
 4001ee0:	10c01020 	cmpeqi	r3,r2,64
 4001ee4:	1800221e 	bne	r3,zero,4001f70 <MAX_busprobe+0xc0>
 4001ee8:	10c01048 	cmpgei	r3,r2,65
 4001eec:	1800021e 	bne	r3,zero,4001ef8 <MAX_busprobe+0x48>
 4001ef0:	10003b26 	beq	r2,zero,4001fe0 <MAX_busprobe+0x130>
			MAXreg_wr( rMODE, MODE_FS_HOST); //start full-speed host
			usb_task_state = ( USB_DETACHED_SUBSTATE_WAIT_FOR_DEVICE);
		}
		break;
	} //end switch( bus_sample )
}
 4001ef4:	00004a06 	br	4002020 <MAX_busprobe+0x170>

//  MAXreg_wr(rHCTL,bmSAMPLEBUS);
	bus_sample = MAXreg_rd( rHRSL);            //Get J,K status
	bus_sample &= ( bmJSTATUS | bmKSTATUS);      //zero the rest of the byte

	switch (bus_sample) {                   //start full-speed or low-speed host
 4001ef8:	10c02020 	cmpeqi	r3,r2,128
 4001efc:	1800031e 	bne	r3,zero,4001f0c <MAX_busprobe+0x5c>
 4001f00:	10803020 	cmpeqi	r2,r2,192
 4001f04:	1000331e 	bne	r2,zero,4001fd4 <MAX_busprobe+0x124>
			MAXreg_wr( rMODE, MODE_FS_HOST); //start full-speed host
			usb_task_state = ( USB_DETACHED_SUBSTATE_WAIT_FOR_DEVICE);
		}
		break;
	} //end switch( bus_sample )
}
 4001f08:	00004506 	br	4002020 <MAX_busprobe+0x170>
	bus_sample &= ( bmJSTATUS | bmKSTATUS);      //zero the rest of the byte

	switch (bus_sample) {                   //start full-speed or low-speed host
	case ( bmJSTATUS):
		/*kludgy*/
		if (usb_task_state != USB_ATTACHED_SUBSTATE_WAIT_RESET_COMPLETE) { //bus reset causes connection detect interrupt
 4001f0c:	d0a00603 	ldbu	r2,-32744(gp)
 4001f10:	10803fcc 	andi	r2,r2,255
 4001f14:	108004e0 	cmpeqi	r2,r2,19
 4001f18:	10003e1e 	bne	r2,zero,4002014 <MAX_busprobe+0x164>
			if (!(MAXreg_rd( rMODE) & bmLOWSPEED)) {
 4001f1c:	01003604 	movi	r4,216
 4001f20:	4001cf40 	call	4001cf4 <MAXreg_rd>
 4001f24:	10803fcc 	andi	r2,r2,255
 4001f28:	1080008c 	andi	r2,r2,2
 4001f2c:	1000071e 	bne	r2,zero,4001f4c <MAX_busprobe+0x9c>
				MAXreg_wr( rMODE, MODE_FS_HOST);         //start full-speed host
 4001f30:	01403244 	movi	r5,201
 4001f34:	01003604 	movi	r4,216
 4001f38:	4001b740 	call	4001b74 <MAXreg_wr>
				printf("Starting in full speed\n");
 4001f3c:	01010074 	movhi	r4,1025
 4001f40:	21156204 	addi	r4,r4,21896
 4001f44:	40048b40 	call	40048b4 <puts>
 4001f48:	00000606 	br	4001f64 <MAX_busprobe+0xb4>
			} else {
				MAXreg_wr( rMODE, MODE_LS_HOST);    //start low-speed host
 4001f4c:	014032c4 	movi	r5,203
 4001f50:	01003604 	movi	r4,216
 4001f54:	4001b740 	call	4001b74 <MAXreg_wr>
				printf("Starting in low speed\n");
 4001f58:	01010074 	movhi	r4,1025
 4001f5c:	21156804 	addi	r4,r4,21920
 4001f60:	40048b40 	call	40048b4 <puts>
			}
			usb_task_state = ( USB_STATE_ATTACHED); //signal usb state machine to start attachment sequence
 4001f64:	00800404 	movi	r2,16
 4001f68:	d0a00605 	stb	r2,-32744(gp)
		}
		break;
 4001f6c:	00002906 	br	4002014 <MAX_busprobe+0x164>
	case ( bmKSTATUS):
		if (usb_task_state != USB_ATTACHED_SUBSTATE_WAIT_RESET_COMPLETE) { //bus reset causes connection detect interrupt
 4001f70:	d0a00603 	ldbu	r2,-32744(gp)
 4001f74:	10803fcc 	andi	r2,r2,255
 4001f78:	108004e0 	cmpeqi	r2,r2,19
 4001f7c:	1000271e 	bne	r2,zero,400201c <MAX_busprobe+0x16c>
			if (!(MAXreg_rd( rMODE) & bmLOWSPEED)) {
 4001f80:	01003604 	movi	r4,216
 4001f84:	4001cf40 	call	4001cf4 <MAXreg_rd>
 4001f88:	10803fcc 	andi	r2,r2,255
 4001f8c:	1080008c 	andi	r2,r2,2
 4001f90:	1000071e 	bne	r2,zero,4001fb0 <MAX_busprobe+0x100>
				MAXreg_wr( rMODE, MODE_LS_HOST);   //start low-speed host
 4001f94:	014032c4 	movi	r5,203
 4001f98:	01003604 	movi	r4,216
 4001f9c:	4001b740 	call	4001b74 <MAXreg_wr>
				printf("Starting in low speed\n");
 4001fa0:	01010074 	movhi	r4,1025
 4001fa4:	21156804 	addi	r4,r4,21920
 4001fa8:	40048b40 	call	40048b4 <puts>
 4001fac:	00000606 	br	4001fc8 <MAX_busprobe+0x118>
			} else {
				MAXreg_wr( rMODE, MODE_FS_HOST);         //start full-speed host
 4001fb0:	01403244 	movi	r5,201
 4001fb4:	01003604 	movi	r4,216
 4001fb8:	4001b740 	call	4001b74 <MAXreg_wr>
				printf("Starting in full speed\n");
 4001fbc:	01010074 	movhi	r4,1025
 4001fc0:	21156204 	addi	r4,r4,21896
 4001fc4:	40048b40 	call	40048b4 <puts>
			}
			usb_task_state = ( USB_STATE_ATTACHED); //signal usb state machine to start attachment sequence
 4001fc8:	00800404 	movi	r2,16
 4001fcc:	d0a00605 	stb	r2,-32744(gp)
		}
		break;
 4001fd0:	00001206 	br	400201c <MAX_busprobe+0x16c>
	case ( bmSE1):              //illegal state
		usb_task_state = ( USB_DETACHED_SUBSTATE_ILLEGAL);
 4001fd4:	00800104 	movi	r2,4
 4001fd8:	d0a00605 	stb	r2,-32744(gp)
		break;
 4001fdc:	00001006 	br	4002020 <MAX_busprobe+0x170>
	case ( bmSE0):              //disconnected state
		if (!((usb_task_state & USB_STATE_MASK) == USB_STATE_DETACHED)) //if we came here from other than detached state
 4001fe0:	d0a00603 	ldbu	r2,-32744(gp)
 4001fe4:	10803fcc 	andi	r2,r2,255
 4001fe8:	10803c0c 	andi	r2,r2,240
 4001fec:	10000326 	beq	r2,zero,4001ffc <MAX_busprobe+0x14c>
			usb_task_state = ( USB_DETACHED_SUBSTATE_INITIALIZE); //clear device data structures
 4001ff0:	00800044 	movi	r2,1
 4001ff4:	d0a00605 	stb	r2,-32744(gp)
		else {
			MAXreg_wr( rMODE, MODE_FS_HOST); //start full-speed host
			usb_task_state = ( USB_DETACHED_SUBSTATE_WAIT_FOR_DEVICE);
		}
		break;
 4001ff8:	00000906 	br	4002020 <MAX_busprobe+0x170>
		break;
	case ( bmSE0):              //disconnected state
		if (!((usb_task_state & USB_STATE_MASK) == USB_STATE_DETACHED)) //if we came here from other than detached state
			usb_task_state = ( USB_DETACHED_SUBSTATE_INITIALIZE); //clear device data structures
		else {
			MAXreg_wr( rMODE, MODE_FS_HOST); //start full-speed host
 4001ffc:	01403244 	movi	r5,201
 4002000:	01003604 	movi	r4,216
 4002004:	4001b740 	call	4001b74 <MAXreg_wr>
			usb_task_state = ( USB_DETACHED_SUBSTATE_WAIT_FOR_DEVICE);
 4002008:	008000c4 	movi	r2,3
 400200c:	d0a00605 	stb	r2,-32744(gp)
		}
		break;
 4002010:	00000306 	br	4002020 <MAX_busprobe+0x170>
				MAXreg_wr( rMODE, MODE_LS_HOST);    //start low-speed host
				printf("Starting in low speed\n");
			}
			usb_task_state = ( USB_STATE_ATTACHED); //signal usb state machine to start attachment sequence
		}
		break;
 4002014:	0001883a 	nop
 4002018:	00000106 	br	4002020 <MAX_busprobe+0x170>
				MAXreg_wr( rMODE, MODE_FS_HOST);         //start full-speed host
				printf("Starting in full speed\n");
			}
			usb_task_state = ( USB_STATE_ATTACHED); //signal usb state machine to start attachment sequence
		}
		break;
 400201c:	0001883a 	nop
			MAXreg_wr( rMODE, MODE_FS_HOST); //start full-speed host
			usb_task_state = ( USB_DETACHED_SUBSTATE_WAIT_FOR_DEVICE);
		}
		break;
	} //end switch( bus_sample )
}
 4002020:	0001883a 	nop
 4002024:	e037883a 	mov	sp,fp
 4002028:	dfc00117 	ldw	ra,4(sp)
 400202c:	df000017 	ldw	fp,0(sp)
 4002030:	dec00204 	addi	sp,sp,8
 4002034:	f800283a 	ret

04002038 <MAX3421E_init>:
/* MAX3421E initialization after power-on   */
void MAX3421E_init(void) {
 4002038:	defffe04 	addi	sp,sp,-8
 400203c:	dfc00115 	stw	ra,4(sp)
 4002040:	df000015 	stw	fp,0(sp)
 4002044:	d839883a 	mov	fp,sp
	/* Configure full-duplex SPI, interrupt pulse   */
	MAXreg_wr( rPINCTL, (bmFDUPSPI + bmINTLEVEL + bmGPXB)); //Full-duplex SPI, level interrupt, GPX
 4002048:	01400684 	movi	r5,26
 400204c:	01002204 	movi	r4,136
 4002050:	4001b740 	call	4001b74 <MAXreg_wr>
	MAX3421E_reset();                                //stop/start the oscillator
 4002054:	4001de40 	call	4001de4 <MAX3421E_reset>
	/* configure power switch   */
	Vbus_power( OFF);                                      //turn Vbus power off
 4002058:	0009883a 	mov	r4,zero
 400205c:	4001e8c0 	call	4001e8c <Vbus_power>
	MAXreg_wr( rGPINIEN, bmGPINIEN7); //enable interrupt on GPIN7 (power switch overload flag)
 4002060:	01402004 	movi	r5,128
 4002064:	01002e04 	movi	r4,184
 4002068:	4001b740 	call	4001b74 <MAXreg_wr>
	Vbus_power( ON);
 400206c:	01000044 	movi	r4,1
 4002070:	4001e8c0 	call	4001e8c <Vbus_power>
	/* configure host operation */
	MAXreg_wr( rMODE, bmDPPULLDN | bmDMPULLDN | bmHOST | bmSEPIRQ); // set pull-downs, SOF, Host, Separate GPIN IRQ on GPX
 4002074:	01403444 	movi	r5,209
 4002078:	01003604 	movi	r4,216
 400207c:	4001b740 	call	4001b74 <MAXreg_wr>
	//MAXreg_wr( rHIEN, bmFRAMEIE|bmCONDETIE|bmBUSEVENTIE );                      // enable SOF, connection detection, bus event IRQs
	MAXreg_wr( rHIEN, bmCONDETIE);                        //connection detection
 4002080:	01400804 	movi	r5,32
 4002084:	01003404 	movi	r4,208
 4002088:	4001b740 	call	4001b74 <MAXreg_wr>
	/* HXFRDNIRQ is checked in Dispatch packet function */
	MAXreg_wr(rHCTL, bmSAMPLEBUS);        // update the JSTATUS and KSTATUS bits
 400208c:	01400104 	movi	r5,4
 4002090:	01003a04 	movi	r4,232
 4002094:	4001b740 	call	4001b74 <MAXreg_wr>
	MAX_busprobe();                             //check if anything is connected
 4002098:	4001eb00 	call	4001eb0 <MAX_busprobe>
	MAXreg_wr( rHIRQ, bmCONDETIRQ); //clear connection detect interrupt                 
 400209c:	01400804 	movi	r5,32
 40020a0:	01003204 	movi	r4,200
 40020a4:	4001b740 	call	4001b74 <MAXreg_wr>
	MAXreg_wr( rCPUCTL, 0x01);                            //enable interrupt pin
 40020a8:	01400044 	movi	r5,1
 40020ac:	01002004 	movi	r4,128
 40020b0:	4001b740 	call	4001b74 <MAXreg_wr>
}
 40020b4:	0001883a 	nop
 40020b8:	e037883a 	mov	sp,fp
 40020bc:	dfc00117 	ldw	ra,4(sp)
 40020c0:	df000017 	ldw	fp,0(sp)
 40020c4:	dec00204 	addi	sp,sp,8
 40020c8:	f800283a 	ret

040020cc <MAX3421E_Task>:

/* MAX3421 state change task and interrupt handler */
void MAX3421E_Task(void) {
 40020cc:	defffe04 	addi	sp,sp,-8
 40020d0:	dfc00115 	stw	ra,4(sp)
 40020d4:	df000015 	stw	fp,0(sp)
 40020d8:	d839883a 	mov	fp,sp
	if ( IORD_ALTERA_AVALON_PIO_DATA(USB_IRQ_BASE) == 0) {
 40020dc:	00820034 	movhi	r2,2048
 40020e0:	10848c04 	addi	r2,r2,4656
 40020e4:	10800037 	ldwio	r2,0(r2)
 40020e8:	1000041e 	bne	r2,zero,40020fc <MAX3421E_Task+0x30>
		printf("MAX interrupt\n\r");
 40020ec:	01010074 	movhi	r4,1025
 40020f0:	21156e04 	addi	r4,r4,21944
 40020f4:	40047b80 	call	40047b8 <printf>
		MaxIntHandler();
 40020f8:	40021380 	call	4002138 <MaxIntHandler>
	}
	if ( IORD_ALTERA_AVALON_PIO_DATA(USB_GPX_BASE) == 1) {
 40020fc:	00820034 	movhi	r2,2048
 4002100:	10848804 	addi	r2,r2,4640
 4002104:	10800037 	ldwio	r2,0(r2)
 4002108:	10800058 	cmpnei	r2,r2,1
 400210c:	1000041e 	bne	r2,zero,4002120 <MAX3421E_Task+0x54>
		printf("GPX interrupt\n\r");
 4002110:	01010074 	movhi	r4,1025
 4002114:	21157204 	addi	r4,r4,21960
 4002118:	40047b80 	call	40047b8 <printf>
		MaxGpxHandler();
 400211c:	40022040 	call	4002204 <MaxGpxHandler>
	}
}
 4002120:	0001883a 	nop
 4002124:	e037883a 	mov	sp,fp
 4002128:	dfc00117 	ldw	ra,4(sp)
 400212c:	df000017 	ldw	fp,0(sp)
 4002130:	dec00204 	addi	sp,sp,8
 4002134:	f800283a 	ret

04002138 <MaxIntHandler>:

void MaxIntHandler(void) {
 4002138:	defffd04 	addi	sp,sp,-12
 400213c:	dfc00215 	stw	ra,8(sp)
 4002140:	df000115 	stw	fp,4(sp)
 4002144:	df000104 	addi	fp,sp,4
	BYTE HIRQ;
	BYTE HIRQ_sendback = 0x00;
 4002148:	e03fff05 	stb	zero,-4(fp)
	HIRQ = MAXreg_rd( rHIRQ);                  //determine interrupt source
 400214c:	01003204 	movi	r4,200
 4002150:	4001cf40 	call	4001cf4 <MAXreg_rd>
 4002154:	e0bfff45 	stb	r2,-3(fp)
	printf("IRQ: %x\n", HIRQ);
 4002158:	e0bfff43 	ldbu	r2,-3(fp)
 400215c:	100b883a 	mov	r5,r2
 4002160:	01010074 	movhi	r4,1025
 4002164:	21157604 	addi	r4,r4,21976
 4002168:	40047b80 	call	40047b8 <printf>
	if (HIRQ & bmFRAMEIRQ) {                   //->1ms SOF interrupt handler
 400216c:	e0bfff43 	ldbu	r2,-3(fp)
 4002170:	1080100c 	andi	r2,r2,64
 4002174:	10000326 	beq	r2,zero,4002184 <MaxIntHandler+0x4c>
		HIRQ_sendback |= bmFRAMEIRQ;
 4002178:	e0bfff03 	ldbu	r2,-4(fp)
 400217c:	10801014 	ori	r2,r2,64
 4002180:	e0bfff05 	stb	r2,-4(fp)
	}                   //end FRAMEIRQ handling

	if (HIRQ & bmCONDETIRQ) {
 4002184:	e0bfff43 	ldbu	r2,-3(fp)
 4002188:	1080080c 	andi	r2,r2,32
 400218c:	10000426 	beq	r2,zero,40021a0 <MaxIntHandler+0x68>
		MAX_busprobe();
 4002190:	4001eb00 	call	4001eb0 <MAX_busprobe>
		HIRQ_sendback |= bmCONDETIRQ;      //set sendback to 1 to clear register
 4002194:	e0bfff03 	ldbu	r2,-4(fp)
 4002198:	10800814 	ori	r2,r2,32
 400219c:	e0bfff05 	stb	r2,-4(fp)
	}
	if (HIRQ & bmSNDBAVIRQ) //if the send buffer is clear (previous transfer completed without issue)
 40021a0:	e0bfff43 	ldbu	r2,-3(fp)
 40021a4:	1080020c 	andi	r2,r2,8
 40021a8:	10000326 	beq	r2,zero,40021b8 <MaxIntHandler+0x80>
	{
		MAXreg_wr(rSNDBC, 0x00);//clear the send buffer (not really necessary, but clears interrupt)
 40021ac:	000b883a 	mov	r5,zero
 40021b0:	01000e04 	movi	r4,56
 40021b4:	4001b740 	call	4001b74 <MAXreg_wr>
	}
	if (HIRQ & bmBUSEVENTIRQ) {           //bus event is either reset or suspend
 40021b8:	e0bfff43 	ldbu	r2,-3(fp)
 40021bc:	1080004c 	andi	r2,r2,1
 40021c0:	10000626 	beq	r2,zero,40021dc <MaxIntHandler+0xa4>
		usb_task_state++;                       //advance USB task state machine
 40021c4:	d0a00603 	ldbu	r2,-32744(gp)
 40021c8:	10800044 	addi	r2,r2,1
 40021cc:	d0a00605 	stb	r2,-32744(gp)
		HIRQ_sendback |= bmBUSEVENTIRQ;
 40021d0:	e0bfff03 	ldbu	r2,-4(fp)
 40021d4:	10800054 	ori	r2,r2,1
 40021d8:	e0bfff05 	stb	r2,-4(fp)
	}
	/* End HIRQ interrupts handling, clear serviced IRQs    */
	MAXreg_wr( rHIRQ, HIRQ_sendback); //write '1' to CONDETIRQ to ack bus state change
 40021dc:	e0bfff03 	ldbu	r2,-4(fp)
 40021e0:	100b883a 	mov	r5,r2
 40021e4:	01003204 	movi	r4,200
 40021e8:	4001b740 	call	4001b74 <MAXreg_wr>
}
 40021ec:	0001883a 	nop
 40021f0:	e037883a 	mov	sp,fp
 40021f4:	dfc00117 	ldw	ra,4(sp)
 40021f8:	df000017 	ldw	fp,0(sp)
 40021fc:	dec00204 	addi	sp,sp,8
 4002200:	f800283a 	ret

04002204 <MaxGpxHandler>:

void MaxGpxHandler(void) {
 4002204:	defffd04 	addi	sp,sp,-12
 4002208:	dfc00215 	stw	ra,8(sp)
 400220c:	df000115 	stw	fp,4(sp)
 4002210:	df000104 	addi	fp,sp,4
	BYTE GPINIRQ;
	GPINIRQ = MAXreg_rd( rGPINIRQ);            //read both IRQ registers
 4002214:	01002c04 	movi	r4,176
 4002218:	4001cf40 	call	4001cf4 <MAXreg_rd>
 400221c:	e0bfff05 	stb	r2,-4(fp)
}
 4002220:	0001883a 	nop
 4002224:	e037883a 	mov	sp,fp
 4002228:	dfc00117 	ldw	ra,4(sp)
 400222c:	df000017 	ldw	fp,0(sp)
 4002230:	dec00204 	addi	sp,sp,8
 4002234:	f800283a 	ret

04002238 <XferCtrlReq>:
/* depending on request. Actual requests are defined as macros                                                                                      */
/* return codes:                */
/* 00       =   success         */
/* 01-0f    =   non-zero HRSLT  */
BYTE XferCtrlReq( BYTE addr, BYTE ep, BYTE bmReqType, BYTE bRequest, BYTE wValLo, BYTE wValHi, WORD wInd, WORD nbytes, BYTE* dataptr )
{
 4002238:	defff104 	addi	sp,sp,-60
 400223c:	dfc00e15 	stw	ra,56(sp)
 4002240:	df000d15 	stw	fp,52(sp)
 4002244:	df000d04 	addi	fp,sp,52
 4002248:	2015883a 	mov	r10,r4
 400224c:	2813883a 	mov	r9,r5
 4002250:	3011883a 	mov	r8,r6
 4002254:	380d883a 	mov	r6,r7
 4002258:	e1400217 	ldw	r5,8(fp)
 400225c:	e1000317 	ldw	r4,12(fp)
 4002260:	e0c00417 	ldw	r3,16(fp)
 4002264:	e0800517 	ldw	r2,20(fp)
 4002268:	e2bff805 	stb	r10,-32(fp)
 400226c:	e27ff905 	stb	r9,-28(fp)
 4002270:	e23ffa05 	stb	r8,-24(fp)
 4002274:	e1bffb05 	stb	r6,-20(fp)
 4002278:	e17ffc05 	stb	r5,-16(fp)
 400227c:	e13ffd05 	stb	r4,-12(fp)
 4002280:	e0fffe0d 	sth	r3,-8(fp)
 4002284:	e0bfff0d 	sth	r2,-4(fp)
 BOOL direction = FALSE;        //request direction, IN or OUT
 4002288:	e03ff415 	stw	zero,-48(fp)
 BYTE datastage = 1; //request data stage present or absent
 400228c:	00800044 	movi	r2,1
 4002290:	e0bff505 	stb	r2,-44(fp)
 BYTE rcode;
 SETUP_PKT setup_pkt;
    if( dataptr == NULL ) {
 4002294:	e0800617 	ldw	r2,24(fp)
 4002298:	1000011e 	bne	r2,zero,40022a0 <XferCtrlReq+0x68>
        datastage = 0;
 400229c:	e03ff505 	stb	zero,-44(fp)
    }
    MAXreg_wr( rPERADDR, addr );                    //set peripheral address
 40022a0:	e0bff803 	ldbu	r2,-32(fp)
 40022a4:	100b883a 	mov	r5,r2
 40022a8:	01003804 	movi	r4,224
 40022ac:	4001b740 	call	4001b74 <MAXreg_wr>
    /* fill in setup packet */
    if( bmReqType & 0x80 ) {
 40022b0:	e0bffa03 	ldbu	r2,-24(fp)
 40022b4:	10803fcc 	andi	r2,r2,255
 40022b8:	1080201c 	xori	r2,r2,128
 40022bc:	10bfe004 	addi	r2,r2,-128
 40022c0:	1000020e 	bge	r2,zero,40022cc <XferCtrlReq+0x94>
        direction = TRUE;                   		//determine request direction
 40022c4:	00800044 	movi	r2,1
 40022c8:	e0bff415 	stw	r2,-48(fp)
    }
    /* fill in setup packet */
    setup_pkt.ReqType_u.bmRequestType = bmReqType;
 40022cc:	e0bffa03 	ldbu	r2,-24(fp)
 40022d0:	e0bff585 	stb	r2,-42(fp)
    setup_pkt.bRequest = bRequest;
 40022d4:	e0bffb03 	ldbu	r2,-20(fp)
 40022d8:	e0bff5c5 	stb	r2,-41(fp)
    setup_pkt.wVal_u.wValueLo = wValLo;
 40022dc:	e0bffc03 	ldbu	r2,-16(fp)
 40022e0:	e0bff605 	stb	r2,-40(fp)
    setup_pkt.wVal_u.wValueHi = wValHi;
 40022e4:	e0bffd03 	ldbu	r2,-12(fp)
 40022e8:	e0bff645 	stb	r2,-39(fp)
    setup_pkt.wIndex = wInd;
 40022ec:	e0bffe0b 	ldhu	r2,-8(fp)
 40022f0:	e0bff68d 	sth	r2,-38(fp)
    setup_pkt.wLength = nbytes;
 40022f4:	e0bfff0b 	ldhu	r2,-4(fp)
 40022f8:	e0bff70d 	sth	r2,-36(fp)
    MAXbytes_wr( rSUDFIFO, 8, (BYTE *)&setup_pkt );     //transfer to setup packet FIFO
 40022fc:	e0bff584 	addi	r2,fp,-42
 4002300:	100d883a 	mov	r6,r2
 4002304:	01400204 	movi	r5,8
 4002308:	01000804 	movi	r4,32
 400230c:	4001bf80 	call	4001bf8 <MAXbytes_wr>
    rcode = XferDispatchPkt( tokSETUP, ep );            //dispatch packet
 4002310:	e0bff903 	ldbu	r2,-28(fp)
 4002314:	100b883a 	mov	r5,r2
 4002318:	01000404 	movi	r4,16
 400231c:	40024e00 	call	40024e0 <XferDispatchPkt>
 4002320:	e0bff545 	stb	r2,-43(fp)
    if( rcode ) {                                       //return HRSLT if not zero
 4002324:	e0bff543 	ldbu	r2,-43(fp)
 4002328:	10000226 	beq	r2,zero,4002334 <XferCtrlReq+0xfc>
        return( rcode );
 400232c:	e0bff543 	ldbu	r2,-43(fp)
 4002330:	00000f06 	br	4002370 <XferCtrlReq+0x138>
    }
    rcode = ctrl_xfers[ datastage ]( addr, ep, nbytes, dataptr, direction );    //call data stage or no data stage transfer
 4002334:	e0bff503 	ldbu	r2,-44(fp)
 4002338:	1085883a 	add	r2,r2,r2
 400233c:	1087883a 	add	r3,r2,r2
 4002340:	d0a00404 	addi	r2,gp,-32752
 4002344:	1885883a 	add	r2,r3,r2
 4002348:	10800017 	ldw	r2,0(r2)
 400234c:	e13ff803 	ldbu	r4,-32(fp)
 4002350:	e17ff903 	ldbu	r5,-28(fp)
 4002354:	e1bfff0b 	ldhu	r6,-4(fp)
 4002358:	e0fff417 	ldw	r3,-48(fp)
 400235c:	d8c00015 	stw	r3,0(sp)
 4002360:	e1c00617 	ldw	r7,24(fp)
 4002364:	103ee83a 	callr	r2
 4002368:	e0bff545 	stb	r2,-43(fp)
    return( rcode );
 400236c:	e0bff543 	ldbu	r2,-43(fp)
}
 4002370:	e037883a 	mov	sp,fp
 4002374:	dfc00117 	ldw	ra,4(sp)
 4002378:	df000017 	ldw	fp,0(sp)
 400237c:	dec00204 	addi	sp,sp,8
 4002380:	f800283a 	ret

04002384 <XferCtrlData>:
/* Control transfer with data stage */
BYTE XferCtrlData( BYTE addr, BYTE ep, WORD nbytes, BYTE* dataptr, BOOL direction )
{
 4002384:	defff804 	addi	sp,sp,-32
 4002388:	dfc00715 	stw	ra,28(sp)
 400238c:	df000615 	stw	fp,24(sp)
 4002390:	df000604 	addi	fp,sp,24
 4002394:	2807883a 	mov	r3,r5
 4002398:	3005883a 	mov	r2,r6
 400239c:	e1ffff15 	stw	r7,-4(fp)
 40023a0:	e13ffc05 	stb	r4,-16(fp)
 40023a4:	e0fffd05 	stb	r3,-12(fp)
 40023a8:	e0bffe0d 	sth	r2,-8(fp)
  BYTE rcode;

    //MAXreg_wr( rHCTL, bmRCVTOG1 );       //set toggle to DATA1
    if( direction ) {   //IN transfer
 40023ac:	e0800217 	ldw	r2,8(fp)
 40023b0:	10002826 	beq	r2,zero,4002454 <XferCtrlData+0xd0>
        devtable[ addr ].epinfo[ ep ].rcvToggle = bmRCVTOG1;
 40023b4:	e0fffc03 	ldbu	r3,-16(fp)
 40023b8:	008100b4 	movhi	r2,1026
 40023bc:	10a47404 	addi	r2,r2,-28208
 40023c0:	180690fa 	slli	r3,r3,3
 40023c4:	10c5883a 	add	r2,r2,r3
 40023c8:	10c00017 	ldw	r3,0(r2)
 40023cc:	e0bffd03 	ldbu	r2,-12(fp)
 40023d0:	100490fa 	slli	r2,r2,3
 40023d4:	1885883a 	add	r2,r3,r2
 40023d8:	00c00804 	movi	r3,32
 40023dc:	10c00185 	stb	r3,6(r2)
        rcode = XferInTransfer( addr, ep, nbytes, dataptr, devtable[ addr ].epinfo[ ep ].MaxPktSize );
 40023e0:	e13ffc03 	ldbu	r4,-16(fp)
 40023e4:	e17ffd03 	ldbu	r5,-12(fp)
 40023e8:	e1bffe0b 	ldhu	r6,-8(fp)
 40023ec:	e0fffc03 	ldbu	r3,-16(fp)
 40023f0:	008100b4 	movhi	r2,1026
 40023f4:	10a47404 	addi	r2,r2,-28208
 40023f8:	180690fa 	slli	r3,r3,3
 40023fc:	10c5883a 	add	r2,r2,r3
 4002400:	10c00017 	ldw	r3,0(r2)
 4002404:	e0bffd03 	ldbu	r2,-12(fp)
 4002408:	100490fa 	slli	r2,r2,3
 400240c:	1885883a 	add	r2,r3,r2
 4002410:	1080008b 	ldhu	r2,2(r2)
 4002414:	10803fcc 	andi	r2,r2,255
 4002418:	d8800015 	stw	r2,0(sp)
 400241c:	e1ffff17 	ldw	r7,-4(fp)
 4002420:	40026440 	call	4002644 <XferInTransfer>
 4002424:	e0bffb05 	stb	r2,-20(fp)
        if( rcode ) {
 4002428:	e0bffb03 	ldbu	r2,-20(fp)
 400242c:	10000226 	beq	r2,zero,4002438 <XferCtrlData+0xb4>
        return( rcode );
 4002430:	e0bffb03 	ldbu	r2,-20(fp)
 4002434:	00000806 	br	4002458 <XferCtrlData+0xd4>
        }
        rcode = XferDispatchPkt( tokOUTHS, ep );
 4002438:	e0bffd03 	ldbu	r2,-12(fp)
 400243c:	100b883a 	mov	r5,r2
 4002440:	01002804 	movi	r4,160
 4002444:	40024e00 	call	40024e0 <XferDispatchPkt>
 4002448:	e0bffb05 	stb	r2,-20(fp)
        return( rcode );
 400244c:	e0bffb03 	ldbu	r2,-20(fp)
 4002450:	00000106 	br	4002458 <XferCtrlData+0xd4>
    }
    else {              //OUT not implemented
        return( 0xff );
 4002454:	00bfffc4 	movi	r2,-1
    }
}
 4002458:	e037883a 	mov	sp,fp
 400245c:	dfc00117 	ldw	ra,4(sp)
 4002460:	df000017 	ldw	fp,0(sp)
 4002464:	dec00204 	addi	sp,sp,8
 4002468:	f800283a 	ret

0400246c <XferCtrlND>:
/* Control transfer with status stage and no data stage */
BYTE XferCtrlND( BYTE addr, BYTE ep, WORD nbytes, BYTE* dataptr, BOOL direction )
{
 400246c:	defff904 	addi	sp,sp,-28
 4002470:	dfc00615 	stw	ra,24(sp)
 4002474:	df000515 	stw	fp,20(sp)
 4002478:	df000504 	addi	fp,sp,20
 400247c:	2807883a 	mov	r3,r5
 4002480:	3005883a 	mov	r2,r6
 4002484:	e1ffff15 	stw	r7,-4(fp)
 4002488:	e13ffc05 	stb	r4,-16(fp)
 400248c:	e0fffd05 	stb	r3,-12(fp)
 4002490:	e0bffe0d 	sth	r2,-8(fp)
  BYTE rcode;
    if( direction ) { //GET
 4002494:	e0800217 	ldw	r2,8(fp)
 4002498:	10000626 	beq	r2,zero,40024b4 <XferCtrlND+0x48>
        rcode = XferDispatchPkt( tokOUTHS, ep );
 400249c:	e0bffd03 	ldbu	r2,-12(fp)
 40024a0:	100b883a 	mov	r5,r2
 40024a4:	01002804 	movi	r4,160
 40024a8:	40024e00 	call	40024e0 <XferDispatchPkt>
 40024ac:	e0bffb05 	stb	r2,-20(fp)
 40024b0:	00000506 	br	40024c8 <XferCtrlND+0x5c>
    }
    else {
        rcode = XferDispatchPkt( tokINHS, ep );
 40024b4:	e0bffd03 	ldbu	r2,-12(fp)
 40024b8:	100b883a 	mov	r5,r2
 40024bc:	01002004 	movi	r4,128
 40024c0:	40024e00 	call	40024e0 <XferDispatchPkt>
 40024c4:	e0bffb05 	stb	r2,-20(fp)
    }
    return( rcode );
 40024c8:	e0bffb03 	ldbu	r2,-20(fp)
}
 40024cc:	e037883a 	mov	sp,fp
 40024d0:	dfc00117 	ldw	ra,4(sp)
 40024d4:	df000017 	ldw	fp,0(sp)
 40024d8:	dec00204 	addi	sp,sp,8
 40024dc:	f800283a 	ret

040024e0 <XferDispatchPkt>:
/* Result code: 0 success, nonzero = error condition                                                */
/* If NAK, tries to re-send up to USB_NAK_LIMIT times                                               */
/* If bus timeout, re-sends up to USB_RETRY_LIMIT times                                             */
/* return codes 0x00-0x0f are HRSLT( 0x00 being success ), 0xff means timeout                       */
BYTE XferDispatchPkt( BYTE token, BYTE ep )
{
 40024e0:	defff904 	addi	sp,sp,-28
 40024e4:	dfc00615 	stw	ra,24(sp)
 40024e8:	df000515 	stw	fp,20(sp)
 40024ec:	df000504 	addi	fp,sp,20
 40024f0:	2007883a 	mov	r3,r4
 40024f4:	2805883a 	mov	r2,r5
 40024f8:	e0fffe05 	stb	r3,-8(fp)
 40024fc:	e0bfff05 	stb	r2,-4(fp)
 * alt_nticks() returns the elapsed number of system clock ticks since reset.
 */

static ALT_INLINE alt_u32 ALT_ALWAYS_INLINE alt_nticks (void)
{
  return _alt_nticks;
 4002500:	d0a70817 	ldw	r2,-25568(gp)
 DWORD timeout = (alt_nticks()*1000)/alt_ticks_per_second() + USB_XFER_TIMEOUT;
 4002504:	1080fa24 	muli	r2,r2,1000
 * Obtain the system clock rate in ticks/s. 
 */

static ALT_INLINE alt_u32 ALT_ALWAYS_INLINE alt_ticks_per_second (void)
{
  return _alt_tick_rate;
 4002508:	d0e70717 	ldw	r3,-25572(gp)
 400250c:	180b883a 	mov	r5,r3
 4002510:	1009883a 	mov	r4,r2
 4002514:	40031f00 	call	40031f0 <__udivsi3>
 4002518:	1084e204 	addi	r2,r2,5000
 400251c:	e0bffc15 	stw	r2,-16(fp)
 BYTE tmpdata;
 BYTE rcode;
 char retry_count = 0;
 4002520:	e03ffb45 	stb	zero,-19(fp)
 BYTE nak_count = 0;
 4002524:	e03ffb85 	stb	zero,-18(fp)

    while( 1 ) {
        MAXreg_wr( rHXFR, ( token|ep ));            //launch the transfer
 4002528:	e0fffe03 	ldbu	r3,-8(fp)
 400252c:	e0bfff03 	ldbu	r2,-4(fp)
 4002530:	1884b03a 	or	r2,r3,r2
 4002534:	10803fcc 	andi	r2,r2,255
 4002538:	100b883a 	mov	r5,r2
 400253c:	01003c04 	movi	r4,240
 4002540:	4001b740 	call	4001b74 <MAXreg_wr>
        rcode = 0xff;
 4002544:	00bfffc4 	movi	r2,-1
 4002548:	e0bffb05 	stb	r2,-20(fp)
        while( (alt_nticks()*1000)/alt_ticks_per_second() < timeout ) {
 400254c:	00000d06 	br	4002584 <XferDispatchPkt+0xa4>
            tmpdata = MAXreg_rd( rHIRQ );
 4002550:	01003204 	movi	r4,200
 4002554:	4001cf40 	call	4001cf4 <MAXreg_rd>
 4002558:	e0bffd05 	stb	r2,-12(fp)
            if( tmpdata & bmHXFRDNIRQ ) {
 400255c:	e0bffd03 	ldbu	r2,-12(fp)
 4002560:	10803fcc 	andi	r2,r2,255
 4002564:	1080201c 	xori	r2,r2,128
 4002568:	10bfe004 	addi	r2,r2,-128
 400256c:	1000050e 	bge	r2,zero,4002584 <XferDispatchPkt+0xa4>
                MAXreg_wr( rHIRQ, bmHXFRDNIRQ );    //clear the interrupt
 4002570:	01402004 	movi	r5,128
 4002574:	01003204 	movi	r4,200
 4002578:	4001b740 	call	4001b74 <MAXreg_wr>
                rcode = 0x00;
 400257c:	e03ffb05 	stb	zero,-20(fp)
                break;
 4002580:	00000906 	br	40025a8 <XferDispatchPkt+0xc8>
 * alt_nticks() returns the elapsed number of system clock ticks since reset.
 */

static ALT_INLINE alt_u32 ALT_ALWAYS_INLINE alt_nticks (void)
{
  return _alt_nticks;
 4002584:	d0a70817 	ldw	r2,-25568(gp)
 BYTE nak_count = 0;

    while( 1 ) {
        MAXreg_wr( rHXFR, ( token|ep ));            //launch the transfer
        rcode = 0xff;
        while( (alt_nticks()*1000)/alt_ticks_per_second() < timeout ) {
 4002588:	1080fa24 	muli	r2,r2,1000
 * Obtain the system clock rate in ticks/s. 
 */

static ALT_INLINE alt_u32 ALT_ALWAYS_INLINE alt_ticks_per_second (void)
{
  return _alt_tick_rate;
 400258c:	d0e70717 	ldw	r3,-25572(gp)
 4002590:	180b883a 	mov	r5,r3
 4002594:	1009883a 	mov	r4,r2
 4002598:	40031f00 	call	40031f0 <__udivsi3>
 400259c:	1007883a 	mov	r3,r2
 40025a0:	e0bffc17 	ldw	r2,-16(fp)
 40025a4:	18bfea36 	bltu	r3,r2,4002550 <__alt_data_end+0xfc002550>
                MAXreg_wr( rHIRQ, bmHXFRDNIRQ );    //clear the interrupt
                rcode = 0x00;
                break;
            }
        }
        if( rcode != 0x00 ) {               //exit if timeout
 40025a8:	e0bffb03 	ldbu	r2,-20(fp)
 40025ac:	10000226 	beq	r2,zero,40025b8 <XferDispatchPkt+0xd8>
            return( rcode );
 40025b0:	e0bffb03 	ldbu	r2,-20(fp)
 40025b4:	00001e06 	br	4002630 <XferDispatchPkt+0x150>
        }
        rcode = ( MAXreg_rd( rHRSL ) & 0x0f );
 40025b8:	01003e04 	movi	r4,248
 40025bc:	4001cf40 	call	4001cf4 <MAXreg_rd>
 40025c0:	108003cc 	andi	r2,r2,15
 40025c4:	e0bffb05 	stb	r2,-20(fp)
        if( rcode == hrNAK ) {
 40025c8:	e0bffb03 	ldbu	r2,-20(fp)
 40025cc:	10800118 	cmpnei	r2,r2,4
 40025d0:	1000071e 	bne	r2,zero,40025f0 <XferDispatchPkt+0x110>
            nak_count++;
 40025d4:	e0bffb83 	ldbu	r2,-18(fp)
 40025d8:	10800044 	addi	r2,r2,1
 40025dc:	e0bffb85 	stb	r2,-18(fp)
            if( nak_count == USB_NAK_LIMIT ) {
 40025e0:	e0bffb83 	ldbu	r2,-18(fp)
 40025e4:	10803218 	cmpnei	r2,r2,200
 40025e8:	10000b1e 	bne	r2,zero,4002618 <XferDispatchPkt+0x138>
                break;
 40025ec:	00000f06 	br	400262c <XferDispatchPkt+0x14c>
            }
            else {
                continue;
            }
        }
        if( rcode == hrTIMEOUT ) {
 40025f0:	e0bffb03 	ldbu	r2,-20(fp)
 40025f4:	10800398 	cmpnei	r2,r2,14
 40025f8:	1000091e 	bne	r2,zero,4002620 <XferDispatchPkt+0x140>
            retry_count++;
 40025fc:	e0bffb43 	ldbu	r2,-19(fp)
 4002600:	10800044 	addi	r2,r2,1
 4002604:	e0bffb45 	stb	r2,-19(fp)
            if( retry_count == USB_RETRY_LIMIT ) {
 4002608:	e0bffb47 	ldb	r2,-19(fp)
 400260c:	108000d8 	cmpnei	r2,r2,3
 4002610:	10000526 	beq	r2,zero,4002628 <XferDispatchPkt+0x148>
                break;
            }
            else {
                continue;
 4002614:	00000106 	br	400261c <XferDispatchPkt+0x13c>
            nak_count++;
            if( nak_count == USB_NAK_LIMIT ) {
                break;
            }
            else {
                continue;
 4002618:	0001883a 	nop
            else {
                continue;
            }
        }
        else break;
    }//while( 1 )
 400261c:	003fc206 	br	4002528 <__alt_data_end+0xfc002528>
            }
            else {
                continue;
            }
        }
        else break;
 4002620:	0001883a 	nop
 4002624:	00000106 	br	400262c <XferDispatchPkt+0x14c>
            }
        }
        if( rcode == hrTIMEOUT ) {
            retry_count++;
            if( retry_count == USB_RETRY_LIMIT ) {
                break;
 4002628:	0001883a 	nop
                continue;
            }
        }
        else break;
    }//while( 1 )
    return( rcode );
 400262c:	e0bffb03 	ldbu	r2,-20(fp)
}
 4002630:	e037883a 	mov	sp,fp
 4002634:	dfc00117 	ldw	ra,4(sp)
 4002638:	df000017 	ldw	fp,0(sp)
 400263c:	dec00204 	addi	sp,sp,8
 4002640:	f800283a 	ret

04002644 <XferInTransfer>:
/* IN transfer to arbitrary endpoint. Assumes PERADDR is set. Handles multiple packets if necessary. Transfers 'nbytes' bytes.
    Keep sending INs and writes data to memory area pointed by 'data' */
/* rcode 0 if no errors. rcode 01-0f is relayed from prvXferDispatchPkt(). Rcode f0 means RCVDAVIRQ error,
            fe USB xfer timeout */
BYTE XferInTransfer( BYTE addr/* not sure if it's necessary */, BYTE ep, WORD nbytes, BYTE* data, BYTE maxpktsize )
{
 4002644:	defff804 	addi	sp,sp,-32
 4002648:	dfc00715 	stw	ra,28(sp)
 400264c:	df000615 	stw	fp,24(sp)
 4002650:	df000604 	addi	fp,sp,24
 4002654:	2011883a 	mov	r8,r4
 4002658:	2809883a 	mov	r4,r5
 400265c:	3007883a 	mov	r3,r6
 4002660:	e1fffe15 	stw	r7,-8(fp)
 4002664:	e0800217 	ldw	r2,8(fp)
 4002668:	e23ffb05 	stb	r8,-20(fp)
 400266c:	e13ffc05 	stb	r4,-16(fp)
 4002670:	e0fffd0d 	sth	r3,-12(fp)
 4002674:	e0bfff05 	stb	r2,-4(fp)
 BYTE rcode;
 BYTE i;
 BYTE tmpbyte;
 BYTE pktsize;
 WORD xfrlen = 0;
 4002678:	e03ffa0d 	sth	zero,-24(fp)
    MAXreg_wr( rHCTL, devtable[ addr ].epinfo[ ep ].rcvToggle );    //set toggle value
 400267c:	e0fffb03 	ldbu	r3,-20(fp)
 4002680:	008100b4 	movhi	r2,1026
 4002684:	10a47404 	addi	r2,r2,-28208
 4002688:	180690fa 	slli	r3,r3,3
 400268c:	10c5883a 	add	r2,r2,r3
 4002690:	10c00017 	ldw	r3,0(r2)
 4002694:	e0bffc03 	ldbu	r2,-16(fp)
 4002698:	100490fa 	slli	r2,r2,3
 400269c:	1885883a 	add	r2,r3,r2
 40026a0:	10800183 	ldbu	r2,6(r2)
 40026a4:	10803fcc 	andi	r2,r2,255
 40026a8:	100b883a 	mov	r5,r2
 40026ac:	01003a04 	movi	r4,232
 40026b0:	4001b740 	call	4001b74 <MAXreg_wr>
    while( 1 ) { // use a 'return' to exit this loop
        rcode = XferDispatchPkt( tokIN, ep );           //IN packet to EP-'endpoint'. Function takes care of NAKS.
 40026b4:	e0bffc03 	ldbu	r2,-16(fp)
 40026b8:	100b883a 	mov	r5,r2
 40026bc:	0009883a 	mov	r4,zero
 40026c0:	40024e00 	call	40024e0 <XferDispatchPkt>
 40026c4:	e0bffa85 	stb	r2,-22(fp)
        if( rcode ) {
 40026c8:	e0bffa83 	ldbu	r2,-22(fp)
 40026cc:	10000226 	beq	r2,zero,40026d8 <XferInTransfer+0x94>
            return( rcode );                            //should be 0, indicating ACK. Else return error code.
 40026d0:	e0bffa83 	ldbu	r2,-22(fp)
 40026d4:	00003a06 	br	40027c0 <XferInTransfer+0x17c>
        }
        /* check for RCVDAVIRQ and generate error if not present */
        /* the only case when absence of RCVDAVIRQ makes sense is when toggle error occurred. Need to add handling for that */
        if(( MAXreg_rd( rHIRQ ) & bmRCVDAVIRQ ) == 0 ) {
 40026d8:	01003204 	movi	r4,200
 40026dc:	4001cf40 	call	4001cf4 <MAXreg_rd>
 40026e0:	10803fcc 	andi	r2,r2,255
 40026e4:	1080010c 	andi	r2,r2,4
 40026e8:	1000021e 	bne	r2,zero,40026f4 <XferInTransfer+0xb0>
            return ( 0xf0 );                            //receive error
 40026ec:	00bffc04 	movi	r2,-16
 40026f0:	00003306 	br	40027c0 <XferInTransfer+0x17c>
        }
        pktsize = MAXreg_rd( rRCVBC );                  //number of received bytes
 40026f4:	01000c04 	movi	r4,48
 40026f8:	4001cf40 	call	4001cf4 <MAXreg_rd>
 40026fc:	e0bffac5 	stb	r2,-21(fp)
        //printf ("pktsize: %d\n", pktsize);
        data = MAXbytes_rd( rRCVFIFO, pktsize, data );
 4002700:	e0bffac3 	ldbu	r2,-21(fp)
 4002704:	e1bffe17 	ldw	r6,-8(fp)
 4002708:	100b883a 	mov	r5,r2
 400270c:	01000204 	movi	r4,8
 4002710:	4001d640 	call	4001d64 <MAXbytes_rd>
 4002714:	e0bffe15 	stw	r2,-8(fp)
        MAXreg_wr( rHIRQ, bmRCVDAVIRQ );                // Clear the IRQ & free the buffer
 4002718:	01400104 	movi	r5,4
 400271c:	01003204 	movi	r4,200
 4002720:	4001b740 	call	4001b74 <MAXreg_wr>
        xfrlen += pktsize;                              // add this packet's byte count to total transfer length
 4002724:	e0fffac3 	ldbu	r3,-21(fp)
 4002728:	e0bffa0b 	ldhu	r2,-24(fp)
 400272c:	1885883a 	add	r2,r3,r2
 4002730:	e0bffa0d 	sth	r2,-24(fp)
        /* The transfer is complete under two conditions:           */
        /* 1. The device sent a short packet (L.T. maxPacketSize)   */
        /* 2. 'nbytes' have been transferred.                       */
        if (( pktsize < maxpktsize ) || (xfrlen >= nbytes )) {    // have we transferred 'nbytes' bytes?
 4002734:	e0fffac3 	ldbu	r3,-21(fp)
 4002738:	e0bfff03 	ldbu	r2,-4(fp)
 400273c:	18800336 	bltu	r3,r2,400274c <XferInTransfer+0x108>
 4002740:	e0fffa0b 	ldhu	r3,-24(fp)
 4002744:	e0bffd0b 	ldhu	r2,-12(fp)
 4002748:	18bfda36 	bltu	r3,r2,40026b4 <__alt_data_end+0xfc0026b4>
            if( MAXreg_rd( rHRSL ) & bmRCVTOGRD ) {                 //save toggle value
 400274c:	01003e04 	movi	r4,248
 4002750:	4001cf40 	call	4001cf4 <MAXreg_rd>
 4002754:	10803fcc 	andi	r2,r2,255
 4002758:	1080040c 	andi	r2,r2,16
 400275c:	10000c26 	beq	r2,zero,4002790 <XferInTransfer+0x14c>
                devtable[ addr ].epinfo[ ep ].rcvToggle = bmRCVTOG1;
 4002760:	e0fffb03 	ldbu	r3,-20(fp)
 4002764:	008100b4 	movhi	r2,1026
 4002768:	10a47404 	addi	r2,r2,-28208
 400276c:	180690fa 	slli	r3,r3,3
 4002770:	10c5883a 	add	r2,r2,r3
 4002774:	10c00017 	ldw	r3,0(r2)
 4002778:	e0bffc03 	ldbu	r2,-16(fp)
 400277c:	100490fa 	slli	r2,r2,3
 4002780:	1885883a 	add	r2,r3,r2
 4002784:	00c00804 	movi	r3,32
 4002788:	10c00185 	stb	r3,6(r2)
 400278c:	00000b06 	br	40027bc <XferInTransfer+0x178>
            }
            else {
                devtable[ addr ].epinfo[ ep ].rcvToggle = bmRCVTOG0;
 4002790:	e0fffb03 	ldbu	r3,-20(fp)
 4002794:	008100b4 	movhi	r2,1026
 4002798:	10a47404 	addi	r2,r2,-28208
 400279c:	180690fa 	slli	r3,r3,3
 40027a0:	10c5883a 	add	r2,r2,r3
 40027a4:	10c00017 	ldw	r3,0(r2)
 40027a8:	e0bffc03 	ldbu	r2,-16(fp)
 40027ac:	100490fa 	slli	r2,r2,3
 40027b0:	1885883a 	add	r2,r3,r2
 40027b4:	00c00404 	movi	r3,16
 40027b8:	10c00185 	stb	r3,6(r2)
            }
            return( 0 );
 40027bc:	0005883a 	mov	r2,zero
        }
  }//while( 1 )
}
 40027c0:	e037883a 	mov	sp,fp
 40027c4:	dfc00117 	ldw	ra,4(sp)
 40027c8:	df000017 	ldw	fp,0(sp)
 40027cc:	dec00204 	addi	sp,sp,8
 40027d0:	f800283a 	ret

040027d4 <USB_init>:
/* initialization of USB data structures */
void USB_init( void )
{
 40027d4:	defffe04 	addi	sp,sp,-8
 40027d8:	df000115 	stw	fp,4(sp)
 40027dc:	df000104 	addi	fp,sp,4
  BYTE i;
    for( i = 0; i < ( USB_NUMDEVICES + 1 ); i++ ) {
 40027e0:	e03fff05 	stb	zero,-4(fp)
 40027e4:	00001006 	br	4002828 <USB_init+0x54>
        devtable[ i ].epinfo = NULL;       //clear device table
 40027e8:	e0ffff03 	ldbu	r3,-4(fp)
 40027ec:	008100b4 	movhi	r2,1026
 40027f0:	10a47404 	addi	r2,r2,-28208
 40027f4:	180690fa 	slli	r3,r3,3
 40027f8:	10c5883a 	add	r2,r2,r3
 40027fc:	10000015 	stw	zero,0(r2)
        devtable[ i ].devclass = 0;
 4002800:	e0ffff03 	ldbu	r3,-4(fp)
 4002804:	008100b4 	movhi	r2,1026
 4002808:	10a47404 	addi	r2,r2,-28208
 400280c:	180690fa 	slli	r3,r3,3
 4002810:	10c5883a 	add	r2,r2,r3
 4002814:	10800104 	addi	r2,r2,4
 4002818:	10000005 	stb	zero,0(r2)
}
/* initialization of USB data structures */
void USB_init( void )
{
  BYTE i;
    for( i = 0; i < ( USB_NUMDEVICES + 1 ); i++ ) {
 400281c:	e0bfff03 	ldbu	r2,-4(fp)
 4002820:	10800044 	addi	r2,r2,1
 4002824:	e0bfff05 	stb	r2,-4(fp)
 4002828:	e0bfff03 	ldbu	r2,-4(fp)
 400282c:	10800270 	cmpltui	r2,r2,9
 4002830:	103fed1e 	bne	r2,zero,40027e8 <__alt_data_end+0xfc0027e8>
        devtable[ i ].epinfo = NULL;       //clear device table
        devtable[ i ].devclass = 0;
    }
    devtable[ 0 ].epinfo = &dev0ep;  //set single ep for uninitialized device
 4002834:	008100b4 	movhi	r2,1026
 4002838:	10a47404 	addi	r2,r2,-28208
 400283c:	d0e6f804 	addi	r3,gp,-25632
 4002840:	10c00015 	stw	r3,0(r2)
    dev0ep.MaxPktSize = 0;
 4002844:	d026f88d 	sth	zero,-25630(gp)
    dev0ep.sndToggle = bmSNDTOG0;   //set DATA0/1 toggles to 0
 4002848:	00801004 	movi	r2,64
 400284c:	d0a6f945 	stb	r2,-25627(gp)
    dev0ep.rcvToggle = bmRCVTOG0;
 4002850:	00800404 	movi	r2,16
 4002854:	d0a6f985 	stb	r2,-25626(gp)
}
 4002858:	0001883a 	nop
 400285c:	e037883a 	mov	sp,fp
 4002860:	df000017 	ldw	fp,0(sp)
 4002864:	dec00104 	addi	sp,sp,4
 4002868:	f800283a 	ret

0400286c <USB_Task>:
/* error codes: 01-0f HRSLT        */
/* ff - unsupported device         */
/* fe - no address available       */
/* fd - no client driver available */
void USB_Task( void )
{
 400286c:	deffb204 	addi	sp,sp,-312
 4002870:	dfc04d15 	stw	ra,308(sp)
 4002874:	df004c15 	stw	fp,304(sp)
 4002878:	dc004b15 	stw	r16,300(sp)
 400287c:	df004c04 	addi	fp,sp,304
 USB_DEVICE_DESCRIPTOR buf;

 BYTE rcode, tmpdata;
 BYTE i;

    switch( usb_task_state & USB_STATE_MASK ) {
 4002880:	d0a00603 	ldbu	r2,-32744(gp)
 4002884:	10803fcc 	andi	r2,r2,255
 4002888:	10803c0c 	andi	r2,r2,240
 400288c:	10c00820 	cmpeqi	r3,r2,32
 4002890:	18010c1e 	bne	r3,zero,4002cc4 <USB_Task+0x458>
 4002894:	10c00848 	cmpgei	r3,r2,33
 4002898:	1800041e 	bne	r3,zero,40028ac <USB_Task+0x40>
 400289c:	10000a26 	beq	r2,zero,40028c8 <USB_Task+0x5c>
 40028a0:	10800420 	cmpeqi	r2,r2,16
 40028a4:	10001b1e 	bne	r2,zero,4002914 <USB_Task+0xa8>
        case( USB_STATE_ERROR ):
            //vTaskDelay( LED_RATE ); //stay here if error
            break;//( USB_STATE_ERROR )
        default:
            //Should never get here
            break;
 40028a8:	00017206 	br	4002e74 <USB_Task+0x608>
 USB_DEVICE_DESCRIPTOR buf;

 BYTE rcode, tmpdata;
 BYTE i;

    switch( usb_task_state & USB_STATE_MASK ) {
 40028ac:	10c01020 	cmpeqi	r3,r2,64
 40028b0:	1801671e 	bne	r3,zero,4002e50 <USB_Task+0x5e4>
 40028b4:	10c03fe0 	cmpeqi	r3,r2,255
 40028b8:	1801671e 	bne	r3,zero,4002e58 <USB_Task+0x5ec>
 40028bc:	10800c20 	cmpeqi	r2,r2,48
 40028c0:	10013e1e 	bne	r2,zero,4002dbc <USB_Task+0x550>
        case( USB_STATE_ERROR ):
            //vTaskDelay( LED_RATE ); //stay here if error
            break;//( USB_STATE_ERROR )
        default:
            //Should never get here
            break;
 40028c4:	00016b06 	br	4002e74 <USB_Task+0x608>
 BYTE i;

    switch( usb_task_state & USB_STATE_MASK ) {
        /* Detached state - when nothing is connected to ( or just disconnected from) USB bus   */
        case( USB_STATE_DETACHED ):
            switch( usb_task_state ) {
 40028c8:	d0a00603 	ldbu	r2,-32744(gp)
 40028cc:	10803fcc 	andi	r2,r2,255
 40028d0:	10c000e0 	cmpeqi	r3,r2,3
 40028d4:	1800091e 	bne	r3,zero,40028fc <USB_Task+0x90>
 40028d8:	10c00120 	cmpeqi	r3,r2,4
 40028dc:	18000b1e 	bne	r3,zero,400290c <USB_Task+0xa0>
 40028e0:	10800060 	cmpeqi	r2,r2,1
 40028e4:	1000011e 	bne	r2,zero,40028ec <USB_Task+0x80>
                    break;
                case( USB_DETACHED_SUBSTATE_ILLEGAL ):
                    /* don't know what to do yet */
                    break;
            }//switch( usb_task_state )
            break;//( USB_STATE_DETACHED ):
 40028e8:	00016206 	br	4002e74 <USB_Task+0x608>
        /* Detached state - when nothing is connected to ( or just disconnected from) USB bus   */
        case( USB_STATE_DETACHED ):
            switch( usb_task_state ) {
                case( USB_DETACHED_SUBSTATE_INITIALIZE ):
                    /* cleanup device data structures */
                    USB_init();
 40028ec:	40027d40 	call	40027d4 <USB_init>
                    usb_task_state = USB_DETACHED_SUBSTATE_WAIT_FOR_DEVICE;
 40028f0:	008000c4 	movi	r2,3
 40028f4:	d0a00605 	stb	r2,-32744(gp)
                    break;
 40028f8:	00000506 	br	4002910 <USB_Task+0xa4>
                case( USB_DETACHED_SUBSTATE_WAIT_FOR_DEVICE ):
                    /* Do nothing */
                    MAXreg_wr(rHCTL,bmSAMPLEBUS);
 40028fc:	01400104 	movi	r5,4
 4002900:	01003a04 	movi	r4,232
 4002904:	4001b740 	call	4001b74 <MAXreg_wr>
                    break;
 4002908:	00000106 	br	4002910 <USB_Task+0xa4>
                case( USB_DETACHED_SUBSTATE_ILLEGAL ):
                    /* don't know what to do yet */
                    break;
 400290c:	0001883a 	nop
            }//switch( usb_task_state )
            break;//( USB_STATE_DETACHED ):
 4002910:	00015806 	br	4002e74 <USB_Task+0x608>
            /**/
        case( USB_STATE_ATTACHED ):                     //prepare for enumeration
            switch( usb_task_state ) {
 4002914:	d0a00603 	ldbu	r2,-32744(gp)
 4002918:	10803fcc 	andi	r2,r2,255
 400291c:	10bffc04 	addi	r2,r2,-16
 4002920:	10c001a8 	cmpgeui	r3,r2,6
 4002924:	18014e1e 	bne	r3,zero,4002e60 <USB_Task+0x5f4>
 4002928:	100690ba 	slli	r3,r2,2
 400292c:	00810034 	movhi	r2,1024
 4002930:	108a5004 	addi	r2,r2,10560
 4002934:	1885883a 	add	r2,r3,r2
 4002938:	10800017 	ldw	r2,0(r2)
 400293c:	1000683a 	jmp	r2
 4002940:	04002958 	cmpnei	r16,zero,165
 4002944:	04002984 	movi	r16,166
 4002948:	040029b4 	movhi	r16,166
 400294c:	040029d8 	cmpnei	r16,zero,167
 4002950:	04002a18 	cmpnei	r16,zero,168
 4002954:	04002a2c 	andhi	r16,zero,168
 * alt_nticks() returns the elapsed number of system clock ticks since reset.
 */

static ALT_INLINE alt_u32 ALT_ALWAYS_INLINE alt_nticks (void)
{
  return _alt_nticks;
 4002958:	d0a70817 	ldw	r2,-25568(gp)
                case( USB_STATE_ATTACHED ):
                    usb_delay = (alt_nticks()*1000)/alt_ticks_per_second() + 200;           //initial settle 200ms
 400295c:	1080fa24 	muli	r2,r2,1000
 * Obtain the system clock rate in ticks/s. 
 */

static ALT_INLINE alt_u32 ALT_ALWAYS_INLINE alt_ticks_per_second (void)
{
  return _alt_tick_rate;
 4002960:	d0e70717 	ldw	r3,-25572(gp)
 4002964:	180b883a 	mov	r5,r3
 4002968:	1009883a 	mov	r4,r2
 400296c:	40031f00 	call	40031f0 <__udivsi3>
 4002970:	10803204 	addi	r2,r2,200
 4002974:	d0a6fb15 	stw	r2,-25620(gp)
                    usb_task_state = USB_ATTACHED_SUBSTATE_SETTLE;
 4002978:	00800444 	movi	r2,17
 400297c:	d0a00605 	stb	r2,-32744(gp)
                    break;//case( USB_STATE_ATTACHED )
 4002980:	0000cf06 	br	4002cc0 <USB_Task+0x454>
 * alt_nticks() returns the elapsed number of system clock ticks since reset.
 */

static ALT_INLINE alt_u32 ALT_ALWAYS_INLINE alt_nticks (void)
{
  return _alt_nticks;
 4002984:	d0a70817 	ldw	r2,-25568(gp)
                case( USB_ATTACHED_SUBSTATE_SETTLE ):   //waiting for settle timer to expire
                    if( (alt_nticks()*1000)/alt_ticks_per_second() > usb_delay ) {
 4002988:	1080fa24 	muli	r2,r2,1000
 * Obtain the system clock rate in ticks/s. 
 */

static ALT_INLINE alt_u32 ALT_ALWAYS_INLINE alt_ticks_per_second (void)
{
  return _alt_tick_rate;
 400298c:	d0e70717 	ldw	r3,-25572(gp)
 4002990:	180b883a 	mov	r5,r3
 4002994:	1009883a 	mov	r4,r2
 4002998:	40031f00 	call	40031f0 <__udivsi3>
 400299c:	1007883a 	mov	r3,r2
 40029a0:	d0a6fb17 	ldw	r2,-25620(gp)
 40029a4:	10c0c32e 	bgeu	r2,r3,4002cb4 <USB_Task+0x448>
                        usb_task_state = USB_ATTACHED_SUBSTATE_RESET_DEVICE;
 40029a8:	00800484 	movi	r2,18
 40029ac:	d0a00605 	stb	r2,-32744(gp)
                    }
                    break;//case( USB_ATTACHED_SUBSTATE_SETTLE )
 40029b0:	0000c006 	br	4002cb4 <USB_Task+0x448>
                case( USB_ATTACHED_SUBSTATE_RESET_DEVICE ):
                    MAXreg_wr( rHIRQ, bmBUSEVENTIRQ );                               //clear bus event IRQ
 40029b4:	01400044 	movi	r5,1
 40029b8:	01003204 	movi	r4,200
 40029bc:	4001b740 	call	4001b74 <MAXreg_wr>
                    MAXreg_wr( rHCTL, bmBUSRST );                                    //issue bus reset
 40029c0:	01400044 	movi	r5,1
 40029c4:	01003a04 	movi	r4,232
 40029c8:	4001b740 	call	4001b74 <MAXreg_wr>
                    usb_task_state = USB_ATTACHED_SUBSTATE_WAIT_RESET_COMPLETE;
 40029cc:	008004c4 	movi	r2,19
 40029d0:	d0a00605 	stb	r2,-32744(gp)
                    break;//case( USB_ATTACHED_SUBSTATE_RESET_DEVICE )
 40029d4:	0000ba06 	br	4002cc0 <USB_Task+0x454>
                case( USB_ATTACHED_SUBSTATE_WAIT_RESET_COMPLETE ):                  //wait for bus reset and first SOF
                    if(( MAXreg_rd( rHCTL ) & bmBUSRST ) == 0 ) {
 40029d8:	01003a04 	movi	r4,232
 40029dc:	4001cf40 	call	4001cf4 <MAXreg_rd>
 40029e0:	10803fcc 	andi	r2,r2,255
 40029e4:	1080004c 	andi	r2,r2,1
 40029e8:	1000b41e 	bne	r2,zero,4002cbc <USB_Task+0x450>
                        tmpdata = MAXreg_rd( rMODE ) | bmSOFKAENAB;                 //start SOF generation
 40029ec:	01003604 	movi	r4,216
 40029f0:	4001cf40 	call	4001cf4 <MAXreg_rd>
 40029f4:	10800214 	ori	r2,r2,8
 40029f8:	e0bfb945 	stb	r2,-283(fp)
                        MAXreg_wr( rMODE, tmpdata );
 40029fc:	e0bfb943 	ldbu	r2,-283(fp)
 4002a00:	100b883a 	mov	r5,r2
 4002a04:	01003604 	movi	r4,216
 4002a08:	4001b740 	call	4001b74 <MAXreg_wr>
                        usb_task_state = USB_ATTACHED_SUBSTATE_WAIT_SOF;
 4002a0c:	00800504 	movi	r2,20
 4002a10:	d0a00605 	stb	r2,-32744(gp)
                    }
                    break;//case( USB_ATTACHED_SUBSTATE_WAIT_RESET_COMPLETE )
 4002a14:	0000a906 	br	4002cbc <USB_Task+0x450>
                case( USB_ATTACHED_SUBSTATE_WAIT_SOF ):
                    if( MAXreg_rd( rHIRQ ) | bmFRAMEIRQ ) {                     //when first SOF received we can continue
 4002a18:	01003204 	movi	r4,200
 4002a1c:	4001cf40 	call	4001cf4 <MAXreg_rd>
                        usb_task_state = USB_ATTACHED_SUBSTATE_GET_DEVICE_DESCRIPTOR_SIZE;
 4002a20:	00800544 	movi	r2,21
 4002a24:	d0a00605 	stb	r2,-32744(gp)
                    }
                    break;//case( USB_ATTACHED_SUBSTATE_WAIT_SOF )
 4002a28:	0000a506 	br	4002cc0 <USB_Task+0x454>
                case( USB_ATTACHED_SUBSTATE_GET_DEVICE_DESCRIPTOR_SIZE ):   //send request for first 8 bytes of device descriptor
                    devtable[ 0 ].epinfo->MaxPktSize = 0x0008;             //fill max packet size with minimum allowed
 4002a2c:	008100b4 	movhi	r2,1026
 4002a30:	10a47404 	addi	r2,r2,-28208
 4002a34:	10800017 	ldw	r2,0(r2)
 4002a38:	00c00204 	movi	r3,8
 4002a3c:	10c0008d 	sth	r3,2(r2)
                	rcode = XferGetDevDescr( 0, 0, 8, (BYTE *)&buf );       //get device descriptor size
 4002a40:	e0bfba04 	addi	r2,fp,-280
 4002a44:	d8800415 	stw	r2,16(sp)
 4002a48:	00800204 	movi	r2,8
 4002a4c:	d8800315 	stw	r2,12(sp)
 4002a50:	d8000215 	stw	zero,8(sp)
 4002a54:	00800044 	movi	r2,1
 4002a58:	d8800115 	stw	r2,4(sp)
 4002a5c:	d8000015 	stw	zero,0(sp)
 4002a60:	01c00184 	movi	r7,6
 4002a64:	01802004 	movi	r6,128
 4002a68:	000b883a 	mov	r5,zero
 4002a6c:	0009883a 	mov	r4,zero
 4002a70:	40022380 	call	4002238 <XferCtrlReq>
 4002a74:	e0bfb985 	stb	r2,-282(fp)
                    if( rcode == 0 ) {
 4002a78:	e0bfb983 	ldbu	r2,-282(fp)
 4002a7c:	1000861e 	bne	r2,zero,4002c98 <USB_Task+0x42c>
                        devtable[ 0 ].epinfo->MaxPktSize = buf.bMaxPacketSize0;
 4002a80:	008100b4 	movhi	r2,1026
 4002a84:	10a47404 	addi	r2,r2,-28208
 4002a88:	10800017 	ldw	r2,0(r2)
 4002a8c:	e0ffbbc3 	ldbu	r3,-273(fp)
 4002a90:	18c03fcc 	andi	r3,r3,255
 4002a94:	10c0008d 	sth	r3,2(r2)

                        rcode = XferGetDevDescr( 0, 0, buf.bLength, (BYTE *)&buf );     //get full descriptor
 4002a98:	e0bfba03 	ldbu	r2,-280(fp)
 4002a9c:	10803fcc 	andi	r2,r2,255
 4002aa0:	e0ffba04 	addi	r3,fp,-280
 4002aa4:	d8c00415 	stw	r3,16(sp)
 4002aa8:	d8800315 	stw	r2,12(sp)
 4002aac:	d8000215 	stw	zero,8(sp)
 4002ab0:	00800044 	movi	r2,1
 4002ab4:	d8800115 	stw	r2,4(sp)
 4002ab8:	d8000015 	stw	zero,0(sp)
 4002abc:	01c00184 	movi	r7,6
 4002ac0:	01802004 	movi	r6,128
 4002ac4:	000b883a 	mov	r5,zero
 4002ac8:	0009883a 	mov	r4,zero
 4002acc:	40022380 	call	4002238 <XferCtrlReq>
 4002ad0:	e0bfb985 	stb	r2,-282(fp)
                        //pull the string descriptor for the product if it exists
            			//hackish, store this somewhere
                        if (buf.iManufacturer != 0)
 4002ad4:	e0bfbd83 	ldbu	r2,-266(fp)
 4002ad8:	10803fcc 	andi	r2,r2,255
 4002adc:	10003426 	beq	r2,zero,4002bb0 <USB_Task+0x344>
                		{
                        	USB_STRING_DESCRIPTOR strDesc;
                			rcode = XferGetStrDescr( 0, 0, 2, buf.iManufacturer, LANG_EN_US, (BYTE *)&strDesc);
 4002ae0:	e0bfbd83 	ldbu	r2,-266(fp)
 4002ae4:	10803fcc 	andi	r2,r2,255
 4002ae8:	e0ffbe84 	addi	r3,fp,-262
 4002aec:	d8c00415 	stw	r3,16(sp)
 4002af0:	00c00084 	movi	r3,2
 4002af4:	d8c00315 	stw	r3,12(sp)
 4002af8:	00c10244 	movi	r3,1033
 4002afc:	d8c00215 	stw	r3,8(sp)
 4002b00:	00c000c4 	movi	r3,3
 4002b04:	d8c00115 	stw	r3,4(sp)
 4002b08:	d8800015 	stw	r2,0(sp)
 4002b0c:	01c00184 	movi	r7,6
 4002b10:	01802004 	movi	r6,128
 4002b14:	000b883a 	mov	r5,zero
 4002b18:	0009883a 	mov	r4,zero
 4002b1c:	40022380 	call	4002238 <XferCtrlReq>
 4002b20:	e0bfb985 	stb	r2,-282(fp)
                			rcode = XferGetStrDescr( 0, 0, strDesc.bLength, buf.iManufacturer, LANG_EN_US, (BYTE *)&strDesc);
 4002b24:	e0bfbd83 	ldbu	r2,-266(fp)
 4002b28:	10803fcc 	andi	r2,r2,255
 4002b2c:	e0ffbe83 	ldbu	r3,-262(fp)
 4002b30:	18c03fcc 	andi	r3,r3,255
 4002b34:	e13fbe84 	addi	r4,fp,-262
 4002b38:	d9000415 	stw	r4,16(sp)
 4002b3c:	d8c00315 	stw	r3,12(sp)
 4002b40:	00c10244 	movi	r3,1033
 4002b44:	d8c00215 	stw	r3,8(sp)
 4002b48:	00c000c4 	movi	r3,3
 4002b4c:	d8c00115 	stw	r3,4(sp)
 4002b50:	d8800015 	stw	r2,0(sp)
 4002b54:	01c00184 	movi	r7,6
 4002b58:	01802004 	movi	r6,128
 4002b5c:	000b883a 	mov	r5,zero
 4002b60:	0009883a 	mov	r4,zero
 4002b64:	40022380 	call	4002238 <XferCtrlReq>
 4002b68:	e0bfb985 	stb	r2,-282(fp)
                			printf ("Mfgr string(%i): %s\n", buf.iManufacturer, ConvUTF8ToStr(strDesc.bString, (strDesc.bLength>>1)-1));
 4002b6c:	e0bfbd83 	ldbu	r2,-266(fp)
 4002b70:	14003fcc 	andi	r16,r2,255
 4002b74:	e0bfbe83 	ldbu	r2,-262(fp)
 4002b78:	10803fcc 	andi	r2,r2,255
 4002b7c:	1004d07a 	srli	r2,r2,1
 4002b80:	10bfffc4 	addi	r2,r2,-1
 4002b84:	10c03fcc 	andi	r3,r2,255
 4002b88:	e0bfbe84 	addi	r2,fp,-262
 4002b8c:	10800084 	addi	r2,r2,2
 4002b90:	180b883a 	mov	r5,r3
 4002b94:	1009883a 	mov	r4,r2
 4002b98:	40030140 	call	4003014 <ConvUTF8ToStr>
 4002b9c:	100d883a 	mov	r6,r2
 4002ba0:	800b883a 	mov	r5,r16
 4002ba4:	01010074 	movhi	r4,1025
 4002ba8:	21157904 	addi	r4,r4,21988
 4002bac:	40047b80 	call	40047b8 <printf>
                		}
                		if (buf.iProduct != 0)
 4002bb0:	e0bfbdc3 	ldbu	r2,-265(fp)
 4002bb4:	10803fcc 	andi	r2,r2,255
 4002bb8:	10003426 	beq	r2,zero,4002c8c <USB_Task+0x420>
                		{
                        	USB_STRING_DESCRIPTOR strDesc;
                        	rcode = XferGetStrDescr( 0, 0, 2, buf.iProduct, LANG_EN_US, (BYTE *)&strDesc);
 4002bbc:	e0bfbdc3 	ldbu	r2,-265(fp)
 4002bc0:	10803fcc 	andi	r2,r2,255
 4002bc4:	e0ffbe84 	addi	r3,fp,-262
 4002bc8:	d8c00415 	stw	r3,16(sp)
 4002bcc:	00c00084 	movi	r3,2
 4002bd0:	d8c00315 	stw	r3,12(sp)
 4002bd4:	00c10244 	movi	r3,1033
 4002bd8:	d8c00215 	stw	r3,8(sp)
 4002bdc:	00c000c4 	movi	r3,3
 4002be0:	d8c00115 	stw	r3,4(sp)
 4002be4:	d8800015 	stw	r2,0(sp)
 4002be8:	01c00184 	movi	r7,6
 4002bec:	01802004 	movi	r6,128
 4002bf0:	000b883a 	mov	r5,zero
 4002bf4:	0009883a 	mov	r4,zero
 4002bf8:	40022380 	call	4002238 <XferCtrlReq>
 4002bfc:	e0bfb985 	stb	r2,-282(fp)
                			rcode = XferGetStrDescr( 0, 0, strDesc.bLength, buf.iProduct, LANG_EN_US, (BYTE *)&strDesc);
 4002c00:	e0bfbdc3 	ldbu	r2,-265(fp)
 4002c04:	10803fcc 	andi	r2,r2,255
 4002c08:	e0ffbe83 	ldbu	r3,-262(fp)
 4002c0c:	18c03fcc 	andi	r3,r3,255
 4002c10:	e13fbe84 	addi	r4,fp,-262
 4002c14:	d9000415 	stw	r4,16(sp)
 4002c18:	d8c00315 	stw	r3,12(sp)
 4002c1c:	00c10244 	movi	r3,1033
 4002c20:	d8c00215 	stw	r3,8(sp)
 4002c24:	00c000c4 	movi	r3,3
 4002c28:	d8c00115 	stw	r3,4(sp)
 4002c2c:	d8800015 	stw	r2,0(sp)
 4002c30:	01c00184 	movi	r7,6
 4002c34:	01802004 	movi	r6,128
 4002c38:	000b883a 	mov	r5,zero
 4002c3c:	0009883a 	mov	r4,zero
 4002c40:	40022380 	call	4002238 <XferCtrlReq>
 4002c44:	e0bfb985 	stb	r2,-282(fp)
                			printf ("Product string(%i): %s\n", buf.iProduct, ConvUTF8ToStr(strDesc.bString, (strDesc.bLength>>1)-1));
 4002c48:	e0bfbdc3 	ldbu	r2,-265(fp)
 4002c4c:	14003fcc 	andi	r16,r2,255
 4002c50:	e0bfbe83 	ldbu	r2,-262(fp)
 4002c54:	10803fcc 	andi	r2,r2,255
 4002c58:	1004d07a 	srli	r2,r2,1
 4002c5c:	10bfffc4 	addi	r2,r2,-1
 4002c60:	10c03fcc 	andi	r3,r2,255
 4002c64:	e0bfbe84 	addi	r2,fp,-262
 4002c68:	10800084 	addi	r2,r2,2
 4002c6c:	180b883a 	mov	r5,r3
 4002c70:	1009883a 	mov	r4,r2
 4002c74:	40030140 	call	4003014 <ConvUTF8ToStr>
 4002c78:	100d883a 	mov	r6,r2
 4002c7c:	800b883a 	mov	r5,r16
 4002c80:	01010074 	movhi	r4,1025
 4002c84:	21157f04 	addi	r4,r4,22012
 4002c88:	40047b80 	call	40047b8 <printf>
                		}
                        usb_task_state = USB_STATE_ADDRESSING;
 4002c8c:	00800804 	movi	r2,32
 4002c90:	d0a00605 	stb	r2,-32744(gp)
                    else {
                        usb_error = rcode;
                        last_usb_task_state = usb_task_state;
                        usb_task_state = USB_STATE_ERROR;
                    }
                    break;//case( USB_ATTACHED_SUBSTATE_GET_DEVICE_DESCRIPTOR_SIZE ):
 4002c94:	00000a06 	br	4002cc0 <USB_Task+0x454>
                		}
                        usb_task_state = USB_STATE_ADDRESSING;

                    }
                    else {
                        usb_error = rcode;
 4002c98:	e0bfb983 	ldbu	r2,-282(fp)
 4002c9c:	d0a6fc45 	stb	r2,-25615(gp)
                        last_usb_task_state = usb_task_state;
 4002ca0:	d0a00603 	ldbu	r2,-32744(gp)
 4002ca4:	d0a6fa05 	stb	r2,-25624(gp)
                        usb_task_state = USB_STATE_ERROR;
 4002ca8:	00bfffc4 	movi	r2,-1
 4002cac:	d0a00605 	stb	r2,-32744(gp)
                    }
                    break;//case( USB_ATTACHED_SUBSTATE_GET_DEVICE_DESCRIPTOR_SIZE ):
 4002cb0:	00000306 	br	4002cc0 <USB_Task+0x454>
                    break;//case( USB_STATE_ATTACHED )
                case( USB_ATTACHED_SUBSTATE_SETTLE ):   //waiting for settle timer to expire
                    if( (alt_nticks()*1000)/alt_ticks_per_second() > usb_delay ) {
                        usb_task_state = USB_ATTACHED_SUBSTATE_RESET_DEVICE;
                    }
                    break;//case( USB_ATTACHED_SUBSTATE_SETTLE )
 4002cb4:	0001883a 	nop
 4002cb8:	00006906 	br	4002e60 <USB_Task+0x5f4>
                    if(( MAXreg_rd( rHCTL ) & bmBUSRST ) == 0 ) {
                        tmpdata = MAXreg_rd( rMODE ) | bmSOFKAENAB;                 //start SOF generation
                        MAXreg_wr( rMODE, tmpdata );
                        usb_task_state = USB_ATTACHED_SUBSTATE_WAIT_SOF;
                    }
                    break;//case( USB_ATTACHED_SUBSTATE_WAIT_RESET_COMPLETE )
 4002cbc:	0001883a 	nop
                        last_usb_task_state = usb_task_state;
                        usb_task_state = USB_STATE_ERROR;
                    }
                    break;//case( USB_ATTACHED_SUBSTATE_GET_DEVICE_DESCRIPTOR_SIZE ):
            }//switch( usb_task_state )
            break;//case ( USB_STATE_ATTACHED )
 4002cc0:	00006706 	br	4002e60 <USB_Task+0x5f4>
        case( USB_STATE_ADDRESSING ):   //give device an address
            for( i = 1; i < USB_NUMDEVICES; i++ ) {
 4002cc4:	00800044 	movi	r2,1
 4002cc8:	e0bfb905 	stb	r2,-284(fp)
 4002ccc:	00002d06 	br	4002d84 <USB_Task+0x518>
                if( devtable[ i ].epinfo == NULL ) {
 4002cd0:	e0ffb903 	ldbu	r3,-284(fp)
 4002cd4:	008100b4 	movhi	r2,1026
 4002cd8:	10a47404 	addi	r2,r2,-28208
 4002cdc:	180690fa 	slli	r3,r3,3
 4002ce0:	10c5883a 	add	r2,r2,r3
 4002ce4:	10800017 	ldw	r2,0(r2)
 4002ce8:	1000231e 	bne	r2,zero,4002d78 <USB_Task+0x50c>
                    devtable[ i ].epinfo = devtable[ 0 ].epinfo;        //set correct MaxPktSize
 4002cec:	e13fb903 	ldbu	r4,-284(fp)
 4002cf0:	008100b4 	movhi	r2,1026
 4002cf4:	10a47404 	addi	r2,r2,-28208
 4002cf8:	10c00017 	ldw	r3,0(r2)
 4002cfc:	008100b4 	movhi	r2,1026
 4002d00:	10a47404 	addi	r2,r2,-28208
 4002d04:	200890fa 	slli	r4,r4,3
 4002d08:	1105883a 	add	r2,r2,r4
 4002d0c:	10c00015 	stw	r3,0(r2)
                    //devtable[ i ].epinfo->MaxPktSize = devtable[ 0 ].epinfo->MaxPktSize;  //copy uninitialized device record to have correct MaxPktSize
                    rcode = XferSetAddr( 0, 0, i );
 4002d10:	e0bfb903 	ldbu	r2,-284(fp)
 4002d14:	d8000415 	stw	zero,16(sp)
 4002d18:	d8000315 	stw	zero,12(sp)
 4002d1c:	d8000215 	stw	zero,8(sp)
 4002d20:	d8000115 	stw	zero,4(sp)
 4002d24:	d8800015 	stw	r2,0(sp)
 4002d28:	01c00144 	movi	r7,5
 4002d2c:	000d883a 	mov	r6,zero
 4002d30:	000b883a 	mov	r5,zero
 4002d34:	0009883a 	mov	r4,zero
 4002d38:	40022380 	call	4002238 <XferCtrlReq>
 4002d3c:	e0bfb985 	stb	r2,-282(fp)
                    if( rcode == 0 ) {
 4002d40:	e0bfb983 	ldbu	r2,-282(fp)
 4002d44:	1000051e 	bne	r2,zero,4002d5c <USB_Task+0x4f0>
                        tmp_addr = i;
 4002d48:	e0bfb903 	ldbu	r2,-284(fp)
 4002d4c:	d0a6fc05 	stb	r2,-25616(gp)
                        usb_task_state = USB_STATE_CONFIGURING;
 4002d50:	00800c04 	movi	r2,48
 4002d54:	d0a00605 	stb	r2,-32744(gp)
                    else {
                        usb_error = rcode;          //set address error
                        last_usb_task_state = usb_task_state;
                        usb_task_state = USB_STATE_ERROR;
                    }
                    break;  //break if address assigned or error occurred during address assignment attempt
 4002d58:	00000d06 	br	4002d90 <USB_Task+0x524>
                    if( rcode == 0 ) {
                        tmp_addr = i;
                        usb_task_state = USB_STATE_CONFIGURING;
                    }
                    else {
                        usb_error = rcode;          //set address error
 4002d5c:	e0bfb983 	ldbu	r2,-282(fp)
 4002d60:	d0a6fc45 	stb	r2,-25615(gp)
                        last_usb_task_state = usb_task_state;
 4002d64:	d0a00603 	ldbu	r2,-32744(gp)
 4002d68:	d0a6fa05 	stb	r2,-25624(gp)
                        usb_task_state = USB_STATE_ERROR;
 4002d6c:	00bfffc4 	movi	r2,-1
 4002d70:	d0a00605 	stb	r2,-32744(gp)
                    }
                    break;  //break if address assigned or error occurred during address assignment attempt
 4002d74:	00000606 	br	4002d90 <USB_Task+0x524>
                    }
                    break;//case( USB_ATTACHED_SUBSTATE_GET_DEVICE_DESCRIPTOR_SIZE ):
            }//switch( usb_task_state )
            break;//case ( USB_STATE_ATTACHED )
        case( USB_STATE_ADDRESSING ):   //give device an address
            for( i = 1; i < USB_NUMDEVICES; i++ ) {
 4002d78:	e0bfb903 	ldbu	r2,-284(fp)
 4002d7c:	10800044 	addi	r2,r2,1
 4002d80:	e0bfb905 	stb	r2,-284(fp)
 4002d84:	e0bfb903 	ldbu	r2,-284(fp)
 4002d88:	10800230 	cmpltui	r2,r2,8
 4002d8c:	103fd01e 	bne	r2,zero,4002cd0 <__alt_data_end+0xfc002cd0>
                        usb_task_state = USB_STATE_ERROR;
                    }
                    break;  //break if address assigned or error occurred during address assignment attempt
                }
            }
            if( usb_task_state == USB_STATE_ADDRESSING ) {
 4002d90:	d0a00603 	ldbu	r2,-32744(gp)
 4002d94:	10803fcc 	andi	r2,r2,255
 4002d98:	10800818 	cmpnei	r2,r2,32
 4002d9c:	1000321e 	bne	r2,zero,4002e68 <USB_Task+0x5fc>
                usb_error = 0xfe;
 4002da0:	00bfff84 	movi	r2,-2
 4002da4:	d0a6fc45 	stb	r2,-25615(gp)
                last_usb_task_state = usb_task_state;
 4002da8:	d0a00603 	ldbu	r2,-32744(gp)
 4002dac:	d0a6fa05 	stb	r2,-25624(gp)
                usb_task_state = USB_STATE_ERROR;
 4002db0:	00bfffc4 	movi	r2,-1
 4002db4:	d0a00605 	stb	r2,-32744(gp)
            }
            break;//case ( USB_STATE_ADDRESSING )
 4002db8:	00002b06 	br	4002e68 <USB_Task+0x5fc>
        case( USB_STATE_CONFIGURING ):              //checking for driver
			//run device class probes until one returns TRUE
            for( i = 0; i < USB_NUMCLASSES; i++ ) {
 4002dbc:	e03fb905 	stb	zero,-284(fp)
 4002dc0:	00001506 	br	4002e18 <USB_Task+0x5ac>
                rcode = ClientDriverTable[ i ].Initialize( tmp_addr, 0 );
 4002dc4:	e0ffb903 	ldbu	r3,-284(fp)
 4002dc8:	00810074 	movhi	r2,1025
 4002dcc:	10965004 	addi	r2,r2,22848
 4002dd0:	18c00324 	muli	r3,r3,12
 4002dd4:	10c5883a 	add	r2,r2,r3
 4002dd8:	10800017 	ldw	r2,0(r2)
 4002ddc:	d0e6fc03 	ldbu	r3,-25616(gp)
 4002de0:	18c03fcc 	andi	r3,r3,255
 4002de4:	000b883a 	mov	r5,zero
 4002de8:	1809883a 	mov	r4,r3
 4002dec:	103ee83a 	callr	r2
 4002df0:	e0bfb985 	stb	r2,-282(fp)
                if( rcode == TRUE ) {
 4002df4:	e0bfb983 	ldbu	r2,-282(fp)
 4002df8:	10800058 	cmpnei	r2,r2,1
 4002dfc:	1000031e 	bne	r2,zero,4002e0c <USB_Task+0x5a0>
			        usb_task_state = USB_STATE_RUNNING;
 4002e00:	00801004 	movi	r2,64
 4002e04:	d0a00605 	stb	r2,-32744(gp)
                    break;
 4002e08:	00000606 	br	4002e24 <USB_Task+0x5b8>
                usb_task_state = USB_STATE_ERROR;
            }
            break;//case ( USB_STATE_ADDRESSING )
        case( USB_STATE_CONFIGURING ):              //checking for driver
			//run device class probes until one returns TRUE
            for( i = 0; i < USB_NUMCLASSES; i++ ) {
 4002e0c:	e0bfb903 	ldbu	r2,-284(fp)
 4002e10:	10800044 	addi	r2,r2,1
 4002e14:	e0bfb905 	stb	r2,-284(fp)
 4002e18:	e0bfb903 	ldbu	r2,-284(fp)
 4002e1c:	10800130 	cmpltui	r2,r2,4
 4002e20:	103fe81e 	bne	r2,zero,4002dc4 <__alt_data_end+0xfc002dc4>
                if( rcode == TRUE ) {
			        usb_task_state = USB_STATE_RUNNING;
                    break;
                }
            }
            if( usb_task_state == USB_STATE_CONFIGURING ) {
 4002e24:	d0a00603 	ldbu	r2,-32744(gp)
 4002e28:	10803fcc 	andi	r2,r2,255
 4002e2c:	10800c18 	cmpnei	r2,r2,48
 4002e30:	10000f1e 	bne	r2,zero,4002e70 <USB_Task+0x604>
                usb_error = 0xfd;
 4002e34:	00bfff44 	movi	r2,-3
 4002e38:	d0a6fc45 	stb	r2,-25615(gp)
                last_usb_task_state = usb_task_state;
 4002e3c:	d0a00603 	ldbu	r2,-32744(gp)
 4002e40:	d0a6fa05 	stb	r2,-25624(gp)
                usb_task_state = USB_STATE_ERROR;
 4002e44:	00bfffc4 	movi	r2,-1
 4002e48:	d0a00605 	stb	r2,-32744(gp)
            }
            break;//( USB_STATE_CONFIGURING )
 4002e4c:	00000806 	br	4002e70 <USB_Task+0x604>
        case( USB_STATE_RUNNING ):
          //vTaskDelay( LED_RATE );
            break;//( USB_STATE_RUNNING )
 4002e50:	0001883a 	nop
 4002e54:	00000706 	br	4002e74 <USB_Task+0x608>
        case( USB_STATE_ERROR ):
            //vTaskDelay( LED_RATE ); //stay here if error
            break;//( USB_STATE_ERROR )
 4002e58:	0001883a 	nop
 4002e5c:	00000506 	br	4002e74 <USB_Task+0x608>
                        last_usb_task_state = usb_task_state;
                        usb_task_state = USB_STATE_ERROR;
                    }
                    break;//case( USB_ATTACHED_SUBSTATE_GET_DEVICE_DESCRIPTOR_SIZE ):
            }//switch( usb_task_state )
            break;//case ( USB_STATE_ATTACHED )
 4002e60:	0001883a 	nop
 4002e64:	00000306 	br	4002e74 <USB_Task+0x608>
            if( usb_task_state == USB_STATE_ADDRESSING ) {
                usb_error = 0xfe;
                last_usb_task_state = usb_task_state;
                usb_task_state = USB_STATE_ERROR;
            }
            break;//case ( USB_STATE_ADDRESSING )
 4002e68:	0001883a 	nop
 4002e6c:	00000106 	br	4002e74 <USB_Task+0x608>
            if( usb_task_state == USB_STATE_CONFIGURING ) {
                usb_error = 0xfd;
                last_usb_task_state = usb_task_state;
                usb_task_state = USB_STATE_ERROR;
            }
            break;//( USB_STATE_CONFIGURING )
 4002e70:	0001883a 	nop
            break;//( USB_STATE_ERROR )
        default:
            //Should never get here
            break;
    }//switch( usb_task_state & STATE_MASK )
}
 4002e74:	0001883a 	nop
 4002e78:	e6ffff04 	addi	sp,fp,-4
 4002e7c:	dfc00217 	ldw	ra,8(sp)
 4002e80:	df000117 	ldw	fp,4(sp)
 4002e84:	dc000017 	ldw	r16,0(sp)
 4002e88:	dec00304 	addi	sp,sp,12
 4002e8c:	f800283a 	ret

04002e90 <MSDProbe>:

//place-holders for MSD (mass-storage device) drivers, we don't have them ported.
//returns TRUE if device is successfully identified and configured, otherwise returns FALSE
BOOL MSDProbe( BYTE addr, DWORD flags )
{
 4002e90:	defffd04 	addi	sp,sp,-12
 4002e94:	df000215 	stw	fp,8(sp)
 4002e98:	df000204 	addi	fp,sp,8
 4002e9c:	2005883a 	mov	r2,r4
 4002ea0:	e17fff15 	stw	r5,-4(fp)
 4002ea4:	e0bffe05 	stb	r2,-8(fp)
    return( FALSE );
 4002ea8:	0005883a 	mov	r2,zero
}
 4002eac:	e037883a 	mov	sp,fp
 4002eb0:	df000017 	ldw	fp,0(sp)
 4002eb4:	dec00104 	addi	sp,sp,4
 4002eb8:	f800283a 	ret

04002ebc <MSDEventHandler>:

BOOL MSDEventHandler( BYTE address, BYTE event, void *data, DWORD size )
{
 4002ebc:	defffb04 	addi	sp,sp,-20
 4002ec0:	df000415 	stw	fp,16(sp)
 4002ec4:	df000404 	addi	fp,sp,16
 4002ec8:	2007883a 	mov	r3,r4
 4002ecc:	2805883a 	mov	r2,r5
 4002ed0:	e1bffe15 	stw	r6,-8(fp)
 4002ed4:	e1ffff15 	stw	r7,-4(fp)
 4002ed8:	e0fffc05 	stb	r3,-16(fp)
 4002edc:	e0bffd05 	stb	r2,-12(fp)

	return( FALSE );
 4002ee0:	0005883a 	mov	r2,zero

}
 4002ee4:	e037883a 	mov	sp,fp
 4002ee8:	df000017 	ldw	fp,0(sp)
 4002eec:	dec00104 	addi	sp,sp,4
 4002ef0:	f800283a 	ret

04002ef4 <CDCProbe>:
//CDC (communication device class also not supported)
BOOL CDCProbe( BYTE address, DWORD flags )
{
 4002ef4:	defffd04 	addi	sp,sp,-12
 4002ef8:	df000215 	stw	fp,8(sp)
 4002efc:	df000204 	addi	fp,sp,8
 4002f00:	2005883a 	mov	r2,r4
 4002f04:	e17fff15 	stw	r5,-4(fp)
 4002f08:	e0bffe05 	stb	r2,-8(fp)

	return( FALSE );
 4002f0c:	0005883a 	mov	r2,zero

}
 4002f10:	e037883a 	mov	sp,fp
 4002f14:	df000017 	ldw	fp,0(sp)
 4002f18:	dec00104 	addi	sp,sp,4
 4002f1c:	f800283a 	ret

04002f20 <CDCEventHandler>:

BOOL CDCEventHandler( BYTE address, BYTE event, void *data, DWORD size )
{
 4002f20:	defffb04 	addi	sp,sp,-20
 4002f24:	df000415 	stw	fp,16(sp)
 4002f28:	df000404 	addi	fp,sp,16
 4002f2c:	2007883a 	mov	r3,r4
 4002f30:	2805883a 	mov	r2,r5
 4002f34:	e1bffe15 	stw	r6,-8(fp)
 4002f38:	e1ffff15 	stw	r7,-4(fp)
 4002f3c:	e0fffc05 	stb	r3,-16(fp)
 4002f40:	e0bffd05 	stb	r2,-12(fp)
	return( FALSE );
 4002f44:	0005883a 	mov	r2,zero
}
 4002f48:	e037883a 	mov	sp,fp
 4002f4c:	df000017 	ldw	fp,0(sp)
 4002f50:	dec00104 	addi	sp,sp,4
 4002f54:	f800283a 	ret

04002f58 <DummyProbe>:

BOOL DummyProbe( BYTE address , DWORD flags )
{
 4002f58:	defffd04 	addi	sp,sp,-12
 4002f5c:	df000215 	stw	fp,8(sp)
 4002f60:	df000204 	addi	fp,sp,8
 4002f64:	2005883a 	mov	r2,r4
 4002f68:	e17fff15 	stw	r5,-4(fp)
 4002f6c:	e0bffe05 	stb	r2,-8(fp)
	return( FALSE );
 4002f70:	0005883a 	mov	r2,zero
}
 4002f74:	e037883a 	mov	sp,fp
 4002f78:	df000017 	ldw	fp,0(sp)
 4002f7c:	dec00104 	addi	sp,sp,4
 4002f80:	f800283a 	ret

04002f84 <DummyEventHandler>:

BOOL DummyEventHandler( BYTE address, BYTE event, void *data, DWORD size )
{
 4002f84:	defffb04 	addi	sp,sp,-20
 4002f88:	df000415 	stw	fp,16(sp)
 4002f8c:	df000404 	addi	fp,sp,16
 4002f90:	2007883a 	mov	r3,r4
 4002f94:	2805883a 	mov	r2,r5
 4002f98:	e1bffe15 	stw	r6,-8(fp)
 4002f9c:	e1ffff15 	stw	r7,-4(fp)
 4002fa0:	e0fffc05 	stb	r3,-16(fp)
 4002fa4:	e0bffd05 	stb	r2,-12(fp)
	return( FALSE );
 4002fa8:	0005883a 	mov	r2,zero
}
 4002fac:	e037883a 	mov	sp,fp
 4002fb0:	df000017 	ldw	fp,0(sp)
 4002fb4:	dec00104 	addi	sp,sp,4
 4002fb8:	f800283a 	ret

04002fbc <GetUsbTaskState>:
/* Function to access usb_task_state variable from outside */
BYTE GetUsbTaskState( void )
{
 4002fbc:	deffff04 	addi	sp,sp,-4
 4002fc0:	df000015 	stw	fp,0(sp)
 4002fc4:	d839883a 	mov	fp,sp
    return( usb_task_state );
 4002fc8:	d0a00603 	ldbu	r2,-32744(gp)
}
 4002fcc:	e037883a 	mov	sp,fp
 4002fd0:	df000017 	ldw	fp,0(sp)
 4002fd4:	dec00104 	addi	sp,sp,4
 4002fd8:	f800283a 	ret

04002fdc <GetDevtable>:
/* Function to access devtable[] from outside */
DEV_RECORD* GetDevtable( BYTE index )
{
 4002fdc:	defffe04 	addi	sp,sp,-8
 4002fe0:	df000115 	stw	fp,4(sp)
 4002fe4:	df000104 	addi	fp,sp,4
 4002fe8:	2005883a 	mov	r2,r4
 4002fec:	e0bfff05 	stb	r2,-4(fp)
    return( &devtable[ index ] );
 4002ff0:	e0bfff03 	ldbu	r2,-4(fp)
 4002ff4:	100690fa 	slli	r3,r2,3
 4002ff8:	008100b4 	movhi	r2,1026
 4002ffc:	10a47404 	addi	r2,r2,-28208
 4003000:	1885883a 	add	r2,r3,r2
}
 4003004:	e037883a 	mov	sp,fp
 4003008:	df000017 	ldw	fp,0(sp)
 400300c:	dec00104 	addi	sp,sp,4
 4003010:	f800283a 	ret

04003014 <ConvUTF8ToStr>:

char* ConvUTF8ToStr(BYTE* utf8, BYTE length)
{
 4003014:	defffc04 	addi	sp,sp,-16
 4003018:	df000315 	stw	fp,12(sp)
 400301c:	df000304 	addi	fp,sp,12
 4003020:	e13ffe15 	stw	r4,-8(fp)
 4003024:	2805883a 	mov	r2,r5
 4003028:	e0bfff05 	stb	r2,-4(fp)
	BYTE i;
	for (i = 0; i < length; i++)
 400302c:	e03ffd05 	stb	zero,-12(fp)
 4003030:	00000d06 	br	4003068 <ConvUTF8ToStr+0x54>
	{
		utf8[i] = utf8[2*i];
 4003034:	e0bffd03 	ldbu	r2,-12(fp)
 4003038:	e0fffe17 	ldw	r3,-8(fp)
 400303c:	1887883a 	add	r3,r3,r2
 4003040:	e0bffd03 	ldbu	r2,-12(fp)
 4003044:	1085883a 	add	r2,r2,r2
 4003048:	1009883a 	mov	r4,r2
 400304c:	e0bffe17 	ldw	r2,-8(fp)
 4003050:	1105883a 	add	r2,r2,r4
 4003054:	10800003 	ldbu	r2,0(r2)
 4003058:	18800005 	stb	r2,0(r3)
}

char* ConvUTF8ToStr(BYTE* utf8, BYTE length)
{
	BYTE i;
	for (i = 0; i < length; i++)
 400305c:	e0bffd03 	ldbu	r2,-12(fp)
 4003060:	10800044 	addi	r2,r2,1
 4003064:	e0bffd05 	stb	r2,-12(fp)
 4003068:	e0fffd03 	ldbu	r3,-12(fp)
 400306c:	e0bfff03 	ldbu	r2,-4(fp)
 4003070:	18bff036 	bltu	r3,r2,4003034 <__alt_data_end+0xfc003034>
	{
		utf8[i] = utf8[2*i];
	}
	utf8[length] = 0x00;
 4003074:	e0bfff03 	ldbu	r2,-4(fp)
 4003078:	e0fffe17 	ldw	r3,-8(fp)
 400307c:	1885883a 	add	r2,r3,r2
 4003080:	10000005 	stb	zero,0(r2)
	return (char*)utf8;
 4003084:	e0bffe17 	ldw	r2,-8(fp)
}
 4003088:	e037883a 	mov	sp,fp
 400308c:	df000017 	ldw	fp,0(sp)
 4003090:	dec00104 	addi	sp,sp,4
 4003094:	f800283a 	ret

04003098 <__fixunssfsi>:
 4003098:	defffd04 	addi	sp,sp,-12
 400309c:	dc000015 	stw	r16,0(sp)
 40030a0:	0413c034 	movhi	r16,20224
 40030a4:	800b883a 	mov	r5,r16
 40030a8:	dc400115 	stw	r17,4(sp)
 40030ac:	dfc00215 	stw	ra,8(sp)
 40030b0:	2023883a 	mov	r17,r4
 40030b4:	40032ac0 	call	40032ac <__gesf2>
 40030b8:	1000070e 	bge	r2,zero,40030d8 <__fixunssfsi+0x40>
 40030bc:	8809883a 	mov	r4,r17
 40030c0:	4003c480 	call	4003c48 <__fixsfsi>
 40030c4:	dfc00217 	ldw	ra,8(sp)
 40030c8:	dc400117 	ldw	r17,4(sp)
 40030cc:	dc000017 	ldw	r16,0(sp)
 40030d0:	dec00304 	addi	sp,sp,12
 40030d4:	f800283a 	ret
 40030d8:	800b883a 	mov	r5,r16
 40030dc:	8809883a 	mov	r4,r17
 40030e0:	40037640 	call	4003764 <__subsf3>
 40030e4:	1009883a 	mov	r4,r2
 40030e8:	4003c480 	call	4003c48 <__fixsfsi>
 40030ec:	00e00034 	movhi	r3,32768
 40030f0:	10c5883a 	add	r2,r2,r3
 40030f4:	003ff306 	br	40030c4 <__alt_data_end+0xfc0030c4>

040030f8 <__divsi3>:
 40030f8:	20001b16 	blt	r4,zero,4003168 <__divsi3+0x70>
 40030fc:	000f883a 	mov	r7,zero
 4003100:	28001616 	blt	r5,zero,400315c <__divsi3+0x64>
 4003104:	200d883a 	mov	r6,r4
 4003108:	29001a2e 	bgeu	r5,r4,4003174 <__divsi3+0x7c>
 400310c:	00800804 	movi	r2,32
 4003110:	00c00044 	movi	r3,1
 4003114:	00000106 	br	400311c <__divsi3+0x24>
 4003118:	10000d26 	beq	r2,zero,4003150 <__divsi3+0x58>
 400311c:	294b883a 	add	r5,r5,r5
 4003120:	10bfffc4 	addi	r2,r2,-1
 4003124:	18c7883a 	add	r3,r3,r3
 4003128:	293ffb36 	bltu	r5,r4,4003118 <__alt_data_end+0xfc003118>
 400312c:	0005883a 	mov	r2,zero
 4003130:	18000726 	beq	r3,zero,4003150 <__divsi3+0x58>
 4003134:	0005883a 	mov	r2,zero
 4003138:	31400236 	bltu	r6,r5,4003144 <__divsi3+0x4c>
 400313c:	314dc83a 	sub	r6,r6,r5
 4003140:	10c4b03a 	or	r2,r2,r3
 4003144:	1806d07a 	srli	r3,r3,1
 4003148:	280ad07a 	srli	r5,r5,1
 400314c:	183ffa1e 	bne	r3,zero,4003138 <__alt_data_end+0xfc003138>
 4003150:	38000126 	beq	r7,zero,4003158 <__divsi3+0x60>
 4003154:	0085c83a 	sub	r2,zero,r2
 4003158:	f800283a 	ret
 400315c:	014bc83a 	sub	r5,zero,r5
 4003160:	39c0005c 	xori	r7,r7,1
 4003164:	003fe706 	br	4003104 <__alt_data_end+0xfc003104>
 4003168:	0109c83a 	sub	r4,zero,r4
 400316c:	01c00044 	movi	r7,1
 4003170:	003fe306 	br	4003100 <__alt_data_end+0xfc003100>
 4003174:	00c00044 	movi	r3,1
 4003178:	003fee06 	br	4003134 <__alt_data_end+0xfc003134>

0400317c <__modsi3>:
 400317c:	20001716 	blt	r4,zero,40031dc <__modsi3+0x60>
 4003180:	000f883a 	mov	r7,zero
 4003184:	2005883a 	mov	r2,r4
 4003188:	28001216 	blt	r5,zero,40031d4 <__modsi3+0x58>
 400318c:	2900162e 	bgeu	r5,r4,40031e8 <__modsi3+0x6c>
 4003190:	01800804 	movi	r6,32
 4003194:	00c00044 	movi	r3,1
 4003198:	00000106 	br	40031a0 <__modsi3+0x24>
 400319c:	30000a26 	beq	r6,zero,40031c8 <__modsi3+0x4c>
 40031a0:	294b883a 	add	r5,r5,r5
 40031a4:	31bfffc4 	addi	r6,r6,-1
 40031a8:	18c7883a 	add	r3,r3,r3
 40031ac:	293ffb36 	bltu	r5,r4,400319c <__alt_data_end+0xfc00319c>
 40031b0:	18000526 	beq	r3,zero,40031c8 <__modsi3+0x4c>
 40031b4:	1806d07a 	srli	r3,r3,1
 40031b8:	11400136 	bltu	r2,r5,40031c0 <__modsi3+0x44>
 40031bc:	1145c83a 	sub	r2,r2,r5
 40031c0:	280ad07a 	srli	r5,r5,1
 40031c4:	183ffb1e 	bne	r3,zero,40031b4 <__alt_data_end+0xfc0031b4>
 40031c8:	38000126 	beq	r7,zero,40031d0 <__modsi3+0x54>
 40031cc:	0085c83a 	sub	r2,zero,r2
 40031d0:	f800283a 	ret
 40031d4:	014bc83a 	sub	r5,zero,r5
 40031d8:	003fec06 	br	400318c <__alt_data_end+0xfc00318c>
 40031dc:	0109c83a 	sub	r4,zero,r4
 40031e0:	01c00044 	movi	r7,1
 40031e4:	003fe706 	br	4003184 <__alt_data_end+0xfc003184>
 40031e8:	00c00044 	movi	r3,1
 40031ec:	003ff106 	br	40031b4 <__alt_data_end+0xfc0031b4>

040031f0 <__udivsi3>:
 40031f0:	200d883a 	mov	r6,r4
 40031f4:	2900152e 	bgeu	r5,r4,400324c <__udivsi3+0x5c>
 40031f8:	28001416 	blt	r5,zero,400324c <__udivsi3+0x5c>
 40031fc:	00800804 	movi	r2,32
 4003200:	00c00044 	movi	r3,1
 4003204:	00000206 	br	4003210 <__udivsi3+0x20>
 4003208:	10000e26 	beq	r2,zero,4003244 <__udivsi3+0x54>
 400320c:	28000516 	blt	r5,zero,4003224 <__udivsi3+0x34>
 4003210:	294b883a 	add	r5,r5,r5
 4003214:	10bfffc4 	addi	r2,r2,-1
 4003218:	18c7883a 	add	r3,r3,r3
 400321c:	293ffa36 	bltu	r5,r4,4003208 <__alt_data_end+0xfc003208>
 4003220:	18000826 	beq	r3,zero,4003244 <__udivsi3+0x54>
 4003224:	0005883a 	mov	r2,zero
 4003228:	31400236 	bltu	r6,r5,4003234 <__udivsi3+0x44>
 400322c:	314dc83a 	sub	r6,r6,r5
 4003230:	10c4b03a 	or	r2,r2,r3
 4003234:	1806d07a 	srli	r3,r3,1
 4003238:	280ad07a 	srli	r5,r5,1
 400323c:	183ffa1e 	bne	r3,zero,4003228 <__alt_data_end+0xfc003228>
 4003240:	f800283a 	ret
 4003244:	0005883a 	mov	r2,zero
 4003248:	f800283a 	ret
 400324c:	00c00044 	movi	r3,1
 4003250:	003ff406 	br	4003224 <__alt_data_end+0xfc003224>

04003254 <__umodsi3>:
 4003254:	2005883a 	mov	r2,r4
 4003258:	2900122e 	bgeu	r5,r4,40032a4 <__umodsi3+0x50>
 400325c:	28001116 	blt	r5,zero,40032a4 <__umodsi3+0x50>
 4003260:	01800804 	movi	r6,32
 4003264:	00c00044 	movi	r3,1
 4003268:	00000206 	br	4003274 <__umodsi3+0x20>
 400326c:	30000c26 	beq	r6,zero,40032a0 <__umodsi3+0x4c>
 4003270:	28000516 	blt	r5,zero,4003288 <__umodsi3+0x34>
 4003274:	294b883a 	add	r5,r5,r5
 4003278:	31bfffc4 	addi	r6,r6,-1
 400327c:	18c7883a 	add	r3,r3,r3
 4003280:	293ffa36 	bltu	r5,r4,400326c <__alt_data_end+0xfc00326c>
 4003284:	18000626 	beq	r3,zero,40032a0 <__umodsi3+0x4c>
 4003288:	1806d07a 	srli	r3,r3,1
 400328c:	11400136 	bltu	r2,r5,4003294 <__umodsi3+0x40>
 4003290:	1145c83a 	sub	r2,r2,r5
 4003294:	280ad07a 	srli	r5,r5,1
 4003298:	183ffb1e 	bne	r3,zero,4003288 <__alt_data_end+0xfc003288>
 400329c:	f800283a 	ret
 40032a0:	f800283a 	ret
 40032a4:	00c00044 	movi	r3,1
 40032a8:	003ff706 	br	4003288 <__alt_data_end+0xfc003288>

040032ac <__gesf2>:
 40032ac:	2004d5fa 	srli	r2,r4,23
 40032b0:	2806d5fa 	srli	r3,r5,23
 40032b4:	01802034 	movhi	r6,128
 40032b8:	31bfffc4 	addi	r6,r6,-1
 40032bc:	10803fcc 	andi	r2,r2,255
 40032c0:	01c03fc4 	movi	r7,255
 40032c4:	3110703a 	and	r8,r6,r4
 40032c8:	18c03fcc 	andi	r3,r3,255
 40032cc:	314c703a 	and	r6,r6,r5
 40032d0:	2008d7fa 	srli	r4,r4,31
 40032d4:	280ad7fa 	srli	r5,r5,31
 40032d8:	11c01926 	beq	r2,r7,4003340 <__gesf2+0x94>
 40032dc:	01c03fc4 	movi	r7,255
 40032e0:	19c00f26 	beq	r3,r7,4003320 <__gesf2+0x74>
 40032e4:	1000061e 	bne	r2,zero,4003300 <__gesf2+0x54>
 40032e8:	400f003a 	cmpeq	r7,r8,zero
 40032ec:	1800071e 	bne	r3,zero,400330c <__gesf2+0x60>
 40032f0:	3000061e 	bne	r6,zero,400330c <__gesf2+0x60>
 40032f4:	0005883a 	mov	r2,zero
 40032f8:	40000e1e 	bne	r8,zero,4003334 <__gesf2+0x88>
 40032fc:	f800283a 	ret
 4003300:	18000a1e 	bne	r3,zero,400332c <__gesf2+0x80>
 4003304:	30000b26 	beq	r6,zero,4003334 <__gesf2+0x88>
 4003308:	000f883a 	mov	r7,zero
 400330c:	29403fcc 	andi	r5,r5,255
 4003310:	38000726 	beq	r7,zero,4003330 <__gesf2+0x84>
 4003314:	28000826 	beq	r5,zero,4003338 <__gesf2+0x8c>
 4003318:	00800044 	movi	r2,1
 400331c:	f800283a 	ret
 4003320:	303ff026 	beq	r6,zero,40032e4 <__alt_data_end+0xfc0032e4>
 4003324:	00bfff84 	movi	r2,-2
 4003328:	f800283a 	ret
 400332c:	29403fcc 	andi	r5,r5,255
 4003330:	21400526 	beq	r4,r5,4003348 <__gesf2+0x9c>
 4003334:	203ff826 	beq	r4,zero,4003318 <__alt_data_end+0xfc003318>
 4003338:	00bfffc4 	movi	r2,-1
 400333c:	f800283a 	ret
 4003340:	403fe626 	beq	r8,zero,40032dc <__alt_data_end+0xfc0032dc>
 4003344:	003ff706 	br	4003324 <__alt_data_end+0xfc003324>
 4003348:	18bffa16 	blt	r3,r2,4003334 <__alt_data_end+0xfc003334>
 400334c:	10c00216 	blt	r2,r3,4003358 <__gesf2+0xac>
 4003350:	323ff836 	bltu	r6,r8,4003334 <__alt_data_end+0xfc003334>
 4003354:	4180022e 	bgeu	r8,r6,4003360 <__gesf2+0xb4>
 4003358:	203fef1e 	bne	r4,zero,4003318 <__alt_data_end+0xfc003318>
 400335c:	003ff606 	br	4003338 <__alt_data_end+0xfc003338>
 4003360:	0005883a 	mov	r2,zero
 4003364:	f800283a 	ret

04003368 <__mulsf3>:
 4003368:	defff504 	addi	sp,sp,-44
 400336c:	dc000115 	stw	r16,4(sp)
 4003370:	2020d5fa 	srli	r16,r4,23
 4003374:	dd400615 	stw	r21,24(sp)
 4003378:	202ad7fa 	srli	r21,r4,31
 400337c:	dc800315 	stw	r18,12(sp)
 4003380:	04802034 	movhi	r18,128
 4003384:	df000915 	stw	fp,36(sp)
 4003388:	dd000515 	stw	r20,20(sp)
 400338c:	94bfffc4 	addi	r18,r18,-1
 4003390:	dfc00a15 	stw	ra,40(sp)
 4003394:	ddc00815 	stw	r23,32(sp)
 4003398:	dd800715 	stw	r22,28(sp)
 400339c:	dcc00415 	stw	r19,16(sp)
 40033a0:	dc400215 	stw	r17,8(sp)
 40033a4:	84003fcc 	andi	r16,r16,255
 40033a8:	9124703a 	and	r18,r18,r4
 40033ac:	a829883a 	mov	r20,r21
 40033b0:	af003fcc 	andi	fp,r21,255
 40033b4:	80005426 	beq	r16,zero,4003508 <__mulsf3+0x1a0>
 40033b8:	00803fc4 	movi	r2,255
 40033bc:	80802f26 	beq	r16,r2,400347c <__mulsf3+0x114>
 40033c0:	91002034 	orhi	r4,r18,128
 40033c4:	202490fa 	slli	r18,r4,3
 40033c8:	843fe044 	addi	r16,r16,-127
 40033cc:	0023883a 	mov	r17,zero
 40033d0:	002f883a 	mov	r23,zero
 40033d4:	2804d5fa 	srli	r2,r5,23
 40033d8:	282cd7fa 	srli	r22,r5,31
 40033dc:	01002034 	movhi	r4,128
 40033e0:	213fffc4 	addi	r4,r4,-1
 40033e4:	10803fcc 	andi	r2,r2,255
 40033e8:	2166703a 	and	r19,r4,r5
 40033ec:	b1803fcc 	andi	r6,r22,255
 40033f0:	10004c26 	beq	r2,zero,4003524 <__mulsf3+0x1bc>
 40033f4:	00c03fc4 	movi	r3,255
 40033f8:	10c04726 	beq	r2,r3,4003518 <__mulsf3+0x1b0>
 40033fc:	99002034 	orhi	r4,r19,128
 4003400:	202690fa 	slli	r19,r4,3
 4003404:	10bfe044 	addi	r2,r2,-127
 4003408:	0007883a 	mov	r3,zero
 400340c:	80a1883a 	add	r16,r16,r2
 4003410:	010003c4 	movi	r4,15
 4003414:	1c44b03a 	or	r2,r3,r17
 4003418:	b56af03a 	xor	r21,r22,r21
 400341c:	81c00044 	addi	r7,r16,1
 4003420:	20806b36 	bltu	r4,r2,40035d0 <__mulsf3+0x268>
 4003424:	100490ba 	slli	r2,r2,2
 4003428:	01010034 	movhi	r4,1024
 400342c:	210d0f04 	addi	r4,r4,13372
 4003430:	1105883a 	add	r2,r2,r4
 4003434:	10800017 	ldw	r2,0(r2)
 4003438:	1000683a 	jmp	r2
 400343c:	040035d0 	cmplti	r16,zero,215
 4003440:	04003490 	cmplti	r16,zero,210
 4003444:	04003490 	cmplti	r16,zero,210
 4003448:	0400348c 	andi	r16,zero,210
 400344c:	040035b4 	movhi	r16,214
 4003450:	040035b4 	movhi	r16,214
 4003454:	040035a0 	cmpeqi	r16,zero,214
 4003458:	0400348c 	andi	r16,zero,210
 400345c:	040035b4 	movhi	r16,214
 4003460:	040035a0 	cmpeqi	r16,zero,214
 4003464:	040035b4 	movhi	r16,214
 4003468:	0400348c 	andi	r16,zero,210
 400346c:	040035c0 	call	40035c <__reset-0x3bffca4>
 4003470:	040035c0 	call	40035c <__reset-0x3bffca4>
 4003474:	040035c0 	call	40035c <__reset-0x3bffca4>
 4003478:	0400369c 	xori	r16,zero,218
 400347c:	90003b1e 	bne	r18,zero,400356c <__mulsf3+0x204>
 4003480:	04400204 	movi	r17,8
 4003484:	05c00084 	movi	r23,2
 4003488:	003fd206 	br	40033d4 <__alt_data_end+0xfc0033d4>
 400348c:	302b883a 	mov	r21,r6
 4003490:	00800084 	movi	r2,2
 4003494:	18802626 	beq	r3,r2,4003530 <__mulsf3+0x1c8>
 4003498:	008000c4 	movi	r2,3
 400349c:	1880ab26 	beq	r3,r2,400374c <__mulsf3+0x3e4>
 40034a0:	00800044 	movi	r2,1
 40034a4:	1880a21e 	bne	r3,r2,4003730 <__mulsf3+0x3c8>
 40034a8:	a829883a 	mov	r20,r21
 40034ac:	0007883a 	mov	r3,zero
 40034b0:	0009883a 	mov	r4,zero
 40034b4:	18803fcc 	andi	r2,r3,255
 40034b8:	100695fa 	slli	r3,r2,23
 40034bc:	a0803fcc 	andi	r2,r20,255
 40034c0:	100a97fa 	slli	r5,r2,31
 40034c4:	00802034 	movhi	r2,128
 40034c8:	10bfffc4 	addi	r2,r2,-1
 40034cc:	2084703a 	and	r2,r4,r2
 40034d0:	10c4b03a 	or	r2,r2,r3
 40034d4:	1144b03a 	or	r2,r2,r5
 40034d8:	dfc00a17 	ldw	ra,40(sp)
 40034dc:	df000917 	ldw	fp,36(sp)
 40034e0:	ddc00817 	ldw	r23,32(sp)
 40034e4:	dd800717 	ldw	r22,28(sp)
 40034e8:	dd400617 	ldw	r21,24(sp)
 40034ec:	dd000517 	ldw	r20,20(sp)
 40034f0:	dcc00417 	ldw	r19,16(sp)
 40034f4:	dc800317 	ldw	r18,12(sp)
 40034f8:	dc400217 	ldw	r17,8(sp)
 40034fc:	dc000117 	ldw	r16,4(sp)
 4003500:	dec00b04 	addi	sp,sp,44
 4003504:	f800283a 	ret
 4003508:	90000d1e 	bne	r18,zero,4003540 <__mulsf3+0x1d8>
 400350c:	04400104 	movi	r17,4
 4003510:	05c00044 	movi	r23,1
 4003514:	003faf06 	br	40033d4 <__alt_data_end+0xfc0033d4>
 4003518:	9806c03a 	cmpne	r3,r19,zero
 400351c:	18c00084 	addi	r3,r3,2
 4003520:	003fba06 	br	400340c <__alt_data_end+0xfc00340c>
 4003524:	9800141e 	bne	r19,zero,4003578 <__mulsf3+0x210>
 4003528:	00c00044 	movi	r3,1
 400352c:	003fb706 	br	400340c <__alt_data_end+0xfc00340c>
 4003530:	a829883a 	mov	r20,r21
 4003534:	00ffffc4 	movi	r3,-1
 4003538:	0009883a 	mov	r4,zero
 400353c:	003fdd06 	br	40034b4 <__alt_data_end+0xfc0034b4>
 4003540:	9009883a 	mov	r4,r18
 4003544:	d9400015 	stw	r5,0(sp)
 4003548:	4003da80 	call	4003da8 <__clzsi2>
 400354c:	10fffec4 	addi	r3,r2,-5
 4003550:	10801d84 	addi	r2,r2,118
 4003554:	90e4983a 	sll	r18,r18,r3
 4003558:	00a1c83a 	sub	r16,zero,r2
 400355c:	0023883a 	mov	r17,zero
 4003560:	002f883a 	mov	r23,zero
 4003564:	d9400017 	ldw	r5,0(sp)
 4003568:	003f9a06 	br	40033d4 <__alt_data_end+0xfc0033d4>
 400356c:	04400304 	movi	r17,12
 4003570:	05c000c4 	movi	r23,3
 4003574:	003f9706 	br	40033d4 <__alt_data_end+0xfc0033d4>
 4003578:	9809883a 	mov	r4,r19
 400357c:	d9800015 	stw	r6,0(sp)
 4003580:	4003da80 	call	4003da8 <__clzsi2>
 4003584:	10fffec4 	addi	r3,r2,-5
 4003588:	10801d84 	addi	r2,r2,118
 400358c:	98e6983a 	sll	r19,r19,r3
 4003590:	0085c83a 	sub	r2,zero,r2
 4003594:	0007883a 	mov	r3,zero
 4003598:	d9800017 	ldw	r6,0(sp)
 400359c:	003f9b06 	br	400340c <__alt_data_end+0xfc00340c>
 40035a0:	01002034 	movhi	r4,128
 40035a4:	0029883a 	mov	r20,zero
 40035a8:	213fffc4 	addi	r4,r4,-1
 40035ac:	00ffffc4 	movi	r3,-1
 40035b0:	003fc006 	br	40034b4 <__alt_data_end+0xfc0034b4>
 40035b4:	9027883a 	mov	r19,r18
 40035b8:	b807883a 	mov	r3,r23
 40035bc:	003fb406 	br	4003490 <__alt_data_end+0xfc003490>
 40035c0:	9027883a 	mov	r19,r18
 40035c4:	e02b883a 	mov	r21,fp
 40035c8:	b807883a 	mov	r3,r23
 40035cc:	003fb006 	br	4003490 <__alt_data_end+0xfc003490>
 40035d0:	9004d43a 	srli	r2,r18,16
 40035d4:	9810d43a 	srli	r8,r19,16
 40035d8:	94bfffcc 	andi	r18,r18,65535
 40035dc:	993fffcc 	andi	r4,r19,65535
 40035e0:	910d383a 	mul	r6,r18,r4
 40035e4:	20a7383a 	mul	r19,r4,r2
 40035e8:	9225383a 	mul	r18,r18,r8
 40035ec:	3006d43a 	srli	r3,r6,16
 40035f0:	1211383a 	mul	r8,r2,r8
 40035f4:	94e5883a 	add	r18,r18,r19
 40035f8:	1c87883a 	add	r3,r3,r18
 40035fc:	1cc0022e 	bgeu	r3,r19,4003608 <__mulsf3+0x2a0>
 4003600:	00800074 	movhi	r2,1
 4003604:	4091883a 	add	r8,r8,r2
 4003608:	1804943a 	slli	r2,r3,16
 400360c:	31bfffcc 	andi	r6,r6,65535
 4003610:	1806d43a 	srli	r3,r3,16
 4003614:	1185883a 	add	r2,r2,r6
 4003618:	102691ba 	slli	r19,r2,6
 400361c:	1a07883a 	add	r3,r3,r8
 4003620:	1004d6ba 	srli	r2,r2,26
 4003624:	180891ba 	slli	r4,r3,6
 4003628:	9826c03a 	cmpne	r19,r19,zero
 400362c:	9884b03a 	or	r2,r19,r2
 4003630:	1126b03a 	or	r19,r2,r4
 4003634:	9882002c 	andhi	r2,r19,2048
 4003638:	10000426 	beq	r2,zero,400364c <__mulsf3+0x2e4>
 400363c:	9804d07a 	srli	r2,r19,1
 4003640:	9900004c 	andi	r4,r19,1
 4003644:	3821883a 	mov	r16,r7
 4003648:	1126b03a 	or	r19,r2,r4
 400364c:	80c01fc4 	addi	r3,r16,127
 4003650:	00c0210e 	bge	zero,r3,40036d8 <__mulsf3+0x370>
 4003654:	988001cc 	andi	r2,r19,7
 4003658:	10000426 	beq	r2,zero,400366c <__mulsf3+0x304>
 400365c:	988003cc 	andi	r2,r19,15
 4003660:	01000104 	movi	r4,4
 4003664:	11000126 	beq	r2,r4,400366c <__mulsf3+0x304>
 4003668:	9927883a 	add	r19,r19,r4
 400366c:	9882002c 	andhi	r2,r19,2048
 4003670:	10000426 	beq	r2,zero,4003684 <__mulsf3+0x31c>
 4003674:	00be0034 	movhi	r2,63488
 4003678:	10bfffc4 	addi	r2,r2,-1
 400367c:	80c02004 	addi	r3,r16,128
 4003680:	98a6703a 	and	r19,r19,r2
 4003684:	00803f84 	movi	r2,254
 4003688:	10ffa916 	blt	r2,r3,4003530 <__alt_data_end+0xfc003530>
 400368c:	980891ba 	slli	r4,r19,6
 4003690:	a829883a 	mov	r20,r21
 4003694:	2008d27a 	srli	r4,r4,9
 4003698:	003f8606 	br	40034b4 <__alt_data_end+0xfc0034b4>
 400369c:	9080102c 	andhi	r2,r18,64
 40036a0:	10000826 	beq	r2,zero,40036c4 <__mulsf3+0x35c>
 40036a4:	9880102c 	andhi	r2,r19,64
 40036a8:	1000061e 	bne	r2,zero,40036c4 <__mulsf3+0x35c>
 40036ac:	00802034 	movhi	r2,128
 40036b0:	99001034 	orhi	r4,r19,64
 40036b4:	10bfffc4 	addi	r2,r2,-1
 40036b8:	b029883a 	mov	r20,r22
 40036bc:	2088703a 	and	r4,r4,r2
 40036c0:	003fba06 	br	40035ac <__alt_data_end+0xfc0035ac>
 40036c4:	00802034 	movhi	r2,128
 40036c8:	91001034 	orhi	r4,r18,64
 40036cc:	10bfffc4 	addi	r2,r2,-1
 40036d0:	2088703a 	and	r4,r4,r2
 40036d4:	003fb506 	br	40035ac <__alt_data_end+0xfc0035ac>
 40036d8:	00800044 	movi	r2,1
 40036dc:	10c7c83a 	sub	r3,r2,r3
 40036e0:	008006c4 	movi	r2,27
 40036e4:	10ff7016 	blt	r2,r3,40034a8 <__alt_data_end+0xfc0034a8>
 40036e8:	00800804 	movi	r2,32
 40036ec:	10c5c83a 	sub	r2,r2,r3
 40036f0:	9884983a 	sll	r2,r19,r2
 40036f4:	98c6d83a 	srl	r3,r19,r3
 40036f8:	1004c03a 	cmpne	r2,r2,zero
 40036fc:	1884b03a 	or	r2,r3,r2
 4003700:	10c001cc 	andi	r3,r2,7
 4003704:	18000426 	beq	r3,zero,4003718 <__mulsf3+0x3b0>
 4003708:	10c003cc 	andi	r3,r2,15
 400370c:	01000104 	movi	r4,4
 4003710:	19000126 	beq	r3,r4,4003718 <__mulsf3+0x3b0>
 4003714:	1105883a 	add	r2,r2,r4
 4003718:	10c1002c 	andhi	r3,r2,1024
 400371c:	18000626 	beq	r3,zero,4003738 <__mulsf3+0x3d0>
 4003720:	a829883a 	mov	r20,r21
 4003724:	00c00044 	movi	r3,1
 4003728:	0009883a 	mov	r4,zero
 400372c:	003f6106 	br	40034b4 <__alt_data_end+0xfc0034b4>
 4003730:	3821883a 	mov	r16,r7
 4003734:	003fc506 	br	400364c <__alt_data_end+0xfc00364c>
 4003738:	100491ba 	slli	r2,r2,6
 400373c:	a829883a 	mov	r20,r21
 4003740:	0007883a 	mov	r3,zero
 4003744:	1008d27a 	srli	r4,r2,9
 4003748:	003f5a06 	br	40034b4 <__alt_data_end+0xfc0034b4>
 400374c:	00802034 	movhi	r2,128
 4003750:	99001034 	orhi	r4,r19,64
 4003754:	10bfffc4 	addi	r2,r2,-1
 4003758:	a829883a 	mov	r20,r21
 400375c:	2088703a 	and	r4,r4,r2
 4003760:	003f9206 	br	40035ac <__alt_data_end+0xfc0035ac>

04003764 <__subsf3>:
 4003764:	defffc04 	addi	sp,sp,-16
 4003768:	280cd5fa 	srli	r6,r5,23
 400376c:	dc000015 	stw	r16,0(sp)
 4003770:	01c02034 	movhi	r7,128
 4003774:	2020d5fa 	srli	r16,r4,23
 4003778:	39ffffc4 	addi	r7,r7,-1
 400377c:	3906703a 	and	r3,r7,r4
 4003780:	dc400115 	stw	r17,4(sp)
 4003784:	394e703a 	and	r7,r7,r5
 4003788:	2022d7fa 	srli	r17,r4,31
 400378c:	dfc00315 	stw	ra,12(sp)
 4003790:	dc800215 	stw	r18,8(sp)
 4003794:	31803fcc 	andi	r6,r6,255
 4003798:	01003fc4 	movi	r4,255
 400379c:	84003fcc 	andi	r16,r16,255
 40037a0:	180690fa 	slli	r3,r3,3
 40037a4:	2804d7fa 	srli	r2,r5,31
 40037a8:	380e90fa 	slli	r7,r7,3
 40037ac:	31006d26 	beq	r6,r4,4003964 <__subsf3+0x200>
 40037b0:	1080005c 	xori	r2,r2,1
 40037b4:	8189c83a 	sub	r4,r16,r6
 40037b8:	14404f26 	beq	r2,r17,40038f8 <__subsf3+0x194>
 40037bc:	0100770e 	bge	zero,r4,400399c <__subsf3+0x238>
 40037c0:	30001e1e 	bne	r6,zero,400383c <__subsf3+0xd8>
 40037c4:	38006a1e 	bne	r7,zero,4003970 <__subsf3+0x20c>
 40037c8:	188001cc 	andi	r2,r3,7
 40037cc:	10000426 	beq	r2,zero,40037e0 <__subsf3+0x7c>
 40037d0:	188003cc 	andi	r2,r3,15
 40037d4:	01000104 	movi	r4,4
 40037d8:	11000126 	beq	r2,r4,40037e0 <__subsf3+0x7c>
 40037dc:	1907883a 	add	r3,r3,r4
 40037e0:	1881002c 	andhi	r2,r3,1024
 40037e4:	10003926 	beq	r2,zero,40038cc <__subsf3+0x168>
 40037e8:	84000044 	addi	r16,r16,1
 40037ec:	00803fc4 	movi	r2,255
 40037f0:	80807526 	beq	r16,r2,40039c8 <__subsf3+0x264>
 40037f4:	180691ba 	slli	r3,r3,6
 40037f8:	8880004c 	andi	r2,r17,1
 40037fc:	180ad27a 	srli	r5,r3,9
 4003800:	84003fcc 	andi	r16,r16,255
 4003804:	800695fa 	slli	r3,r16,23
 4003808:	10803fcc 	andi	r2,r2,255
 400380c:	01002034 	movhi	r4,128
 4003810:	213fffc4 	addi	r4,r4,-1
 4003814:	100497fa 	slli	r2,r2,31
 4003818:	2920703a 	and	r16,r5,r4
 400381c:	80e0b03a 	or	r16,r16,r3
 4003820:	8084b03a 	or	r2,r16,r2
 4003824:	dfc00317 	ldw	ra,12(sp)
 4003828:	dc800217 	ldw	r18,8(sp)
 400382c:	dc400117 	ldw	r17,4(sp)
 4003830:	dc000017 	ldw	r16,0(sp)
 4003834:	dec00404 	addi	sp,sp,16
 4003838:	f800283a 	ret
 400383c:	00803fc4 	movi	r2,255
 4003840:	80bfe126 	beq	r16,r2,40037c8 <__alt_data_end+0xfc0037c8>
 4003844:	39c10034 	orhi	r7,r7,1024
 4003848:	008006c4 	movi	r2,27
 400384c:	11007416 	blt	r2,r4,4003a20 <__subsf3+0x2bc>
 4003850:	00800804 	movi	r2,32
 4003854:	1105c83a 	sub	r2,r2,r4
 4003858:	3884983a 	sll	r2,r7,r2
 400385c:	390ed83a 	srl	r7,r7,r4
 4003860:	1008c03a 	cmpne	r4,r2,zero
 4003864:	390eb03a 	or	r7,r7,r4
 4003868:	19c7c83a 	sub	r3,r3,r7
 400386c:	1881002c 	andhi	r2,r3,1024
 4003870:	10001426 	beq	r2,zero,40038c4 <__subsf3+0x160>
 4003874:	04810034 	movhi	r18,1024
 4003878:	94bfffc4 	addi	r18,r18,-1
 400387c:	1ca4703a 	and	r18,r3,r18
 4003880:	9009883a 	mov	r4,r18
 4003884:	4003da80 	call	4003da8 <__clzsi2>
 4003888:	10bffec4 	addi	r2,r2,-5
 400388c:	90a4983a 	sll	r18,r18,r2
 4003890:	14005116 	blt	r2,r16,40039d8 <__subsf3+0x274>
 4003894:	1405c83a 	sub	r2,r2,r16
 4003898:	10c00044 	addi	r3,r2,1
 400389c:	00800804 	movi	r2,32
 40038a0:	10c5c83a 	sub	r2,r2,r3
 40038a4:	9084983a 	sll	r2,r18,r2
 40038a8:	90e4d83a 	srl	r18,r18,r3
 40038ac:	0021883a 	mov	r16,zero
 40038b0:	1006c03a 	cmpne	r3,r2,zero
 40038b4:	90c6b03a 	or	r3,r18,r3
 40038b8:	003fc306 	br	40037c8 <__alt_data_end+0xfc0037c8>
 40038bc:	2000e026 	beq	r4,zero,4003c40 <__subsf3+0x4dc>
 40038c0:	2007883a 	mov	r3,r4
 40038c4:	188001cc 	andi	r2,r3,7
 40038c8:	103fc11e 	bne	r2,zero,40037d0 <__alt_data_end+0xfc0037d0>
 40038cc:	180ad0fa 	srli	r5,r3,3
 40038d0:	00c03fc4 	movi	r3,255
 40038d4:	8880004c 	andi	r2,r17,1
 40038d8:	80c0031e 	bne	r16,r3,40038e8 <__subsf3+0x184>
 40038dc:	28006d26 	beq	r5,zero,4003a94 <__subsf3+0x330>
 40038e0:	29401034 	orhi	r5,r5,64
 40038e4:	043fffc4 	movi	r16,-1
 40038e8:	00c02034 	movhi	r3,128
 40038ec:	18ffffc4 	addi	r3,r3,-1
 40038f0:	28ca703a 	and	r5,r5,r3
 40038f4:	003fc206 	br	4003800 <__alt_data_end+0xfc003800>
 40038f8:	01003c0e 	bge	zero,r4,40039ec <__subsf3+0x288>
 40038fc:	30002126 	beq	r6,zero,4003984 <__subsf3+0x220>
 4003900:	01403fc4 	movi	r5,255
 4003904:	817fb026 	beq	r16,r5,40037c8 <__alt_data_end+0xfc0037c8>
 4003908:	39c10034 	orhi	r7,r7,1024
 400390c:	014006c4 	movi	r5,27
 4003910:	29007416 	blt	r5,r4,4003ae4 <__subsf3+0x380>
 4003914:	01400804 	movi	r5,32
 4003918:	290bc83a 	sub	r5,r5,r4
 400391c:	394a983a 	sll	r5,r7,r5
 4003920:	390ed83a 	srl	r7,r7,r4
 4003924:	2808c03a 	cmpne	r4,r5,zero
 4003928:	390eb03a 	or	r7,r7,r4
 400392c:	19c7883a 	add	r3,r3,r7
 4003930:	1901002c 	andhi	r4,r3,1024
 4003934:	20003826 	beq	r4,zero,4003a18 <__subsf3+0x2b4>
 4003938:	84000044 	addi	r16,r16,1
 400393c:	01003fc4 	movi	r4,255
 4003940:	81005426 	beq	r16,r4,4003a94 <__subsf3+0x330>
 4003944:	1023883a 	mov	r17,r2
 4003948:	00bf0034 	movhi	r2,64512
 400394c:	10bfffc4 	addi	r2,r2,-1
 4003950:	1900004c 	andi	r4,r3,1
 4003954:	1886703a 	and	r3,r3,r2
 4003958:	1806d07a 	srli	r3,r3,1
 400395c:	1906b03a 	or	r3,r3,r4
 4003960:	003f9906 	br	40037c8 <__alt_data_end+0xfc0037c8>
 4003964:	383f9226 	beq	r7,zero,40037b0 <__alt_data_end+0xfc0037b0>
 4003968:	10803fcc 	andi	r2,r2,255
 400396c:	003f9106 	br	40037b4 <__alt_data_end+0xfc0037b4>
 4003970:	213fffc4 	addi	r4,r4,-1
 4003974:	203fbc26 	beq	r4,zero,4003868 <__alt_data_end+0xfc003868>
 4003978:	00803fc4 	movi	r2,255
 400397c:	80bfb21e 	bne	r16,r2,4003848 <__alt_data_end+0xfc003848>
 4003980:	003f9106 	br	40037c8 <__alt_data_end+0xfc0037c8>
 4003984:	383f9026 	beq	r7,zero,40037c8 <__alt_data_end+0xfc0037c8>
 4003988:	213fffc4 	addi	r4,r4,-1
 400398c:	203fe726 	beq	r4,zero,400392c <__alt_data_end+0xfc00392c>
 4003990:	01403fc4 	movi	r5,255
 4003994:	817fdd1e 	bne	r16,r5,400390c <__alt_data_end+0xfc00390c>
 4003998:	003f8b06 	br	40037c8 <__alt_data_end+0xfc0037c8>
 400399c:	2000221e 	bne	r4,zero,4003a28 <__subsf3+0x2c4>
 40039a0:	81000044 	addi	r4,r16,1
 40039a4:	21003fcc 	andi	r4,r4,255
 40039a8:	01400044 	movi	r5,1
 40039ac:	2900470e 	bge	r5,r4,4003acc <__subsf3+0x368>
 40039b0:	19e5c83a 	sub	r18,r3,r7
 40039b4:	9141002c 	andhi	r5,r18,1024
 40039b8:	28002d26 	beq	r5,zero,4003a70 <__subsf3+0x30c>
 40039bc:	38e5c83a 	sub	r18,r7,r3
 40039c0:	1023883a 	mov	r17,r2
 40039c4:	003fae06 	br	4003880 <__alt_data_end+0xfc003880>
 40039c8:	8880004c 	andi	r2,r17,1
 40039cc:	043fffc4 	movi	r16,-1
 40039d0:	000b883a 	mov	r5,zero
 40039d4:	003f8a06 	br	4003800 <__alt_data_end+0xfc003800>
 40039d8:	00ff0034 	movhi	r3,64512
 40039dc:	18ffffc4 	addi	r3,r3,-1
 40039e0:	80a1c83a 	sub	r16,r16,r2
 40039e4:	90c6703a 	and	r3,r18,r3
 40039e8:	003f7706 	br	40037c8 <__alt_data_end+0xfc0037c8>
 40039ec:	2000431e 	bne	r4,zero,4003afc <__subsf3+0x398>
 40039f0:	81000044 	addi	r4,r16,1
 40039f4:	21803fcc 	andi	r6,r4,255
 40039f8:	01400044 	movi	r5,1
 40039fc:	2980280e 	bge	r5,r6,4003aa0 <__subsf3+0x33c>
 4003a00:	01403fc4 	movi	r5,255
 4003a04:	21402326 	beq	r4,r5,4003a94 <__subsf3+0x330>
 4003a08:	19c7883a 	add	r3,r3,r7
 4003a0c:	1806d07a 	srli	r3,r3,1
 4003a10:	2021883a 	mov	r16,r4
 4003a14:	003f6c06 	br	40037c8 <__alt_data_end+0xfc0037c8>
 4003a18:	1023883a 	mov	r17,r2
 4003a1c:	003fa906 	br	40038c4 <__alt_data_end+0xfc0038c4>
 4003a20:	01c00044 	movi	r7,1
 4003a24:	003f9006 	br	4003868 <__alt_data_end+0xfc003868>
 4003a28:	8000151e 	bne	r16,zero,4003a80 <__subsf3+0x31c>
 4003a2c:	18002f26 	beq	r3,zero,4003aec <__subsf3+0x388>
 4003a30:	0108303a 	nor	r4,zero,r4
 4003a34:	20000a26 	beq	r4,zero,4003a60 <__subsf3+0x2fc>
 4003a38:	01403fc4 	movi	r5,255
 4003a3c:	31402b26 	beq	r6,r5,4003aec <__subsf3+0x388>
 4003a40:	014006c4 	movi	r5,27
 4003a44:	29006e16 	blt	r5,r4,4003c00 <__subsf3+0x49c>
 4003a48:	01400804 	movi	r5,32
 4003a4c:	290bc83a 	sub	r5,r5,r4
 4003a50:	194a983a 	sll	r5,r3,r5
 4003a54:	1908d83a 	srl	r4,r3,r4
 4003a58:	2806c03a 	cmpne	r3,r5,zero
 4003a5c:	20c6b03a 	or	r3,r4,r3
 4003a60:	38c7c83a 	sub	r3,r7,r3
 4003a64:	3021883a 	mov	r16,r6
 4003a68:	1023883a 	mov	r17,r2
 4003a6c:	003f7f06 	br	400386c <__alt_data_end+0xfc00386c>
 4003a70:	903f831e 	bne	r18,zero,4003880 <__alt_data_end+0xfc003880>
 4003a74:	0005883a 	mov	r2,zero
 4003a78:	0021883a 	mov	r16,zero
 4003a7c:	003f9a06 	br	40038e8 <__alt_data_end+0xfc0038e8>
 4003a80:	01403fc4 	movi	r5,255
 4003a84:	31401926 	beq	r6,r5,4003aec <__subsf3+0x388>
 4003a88:	0109c83a 	sub	r4,zero,r4
 4003a8c:	18c10034 	orhi	r3,r3,1024
 4003a90:	003feb06 	br	4003a40 <__alt_data_end+0xfc003a40>
 4003a94:	043fffc4 	movi	r16,-1
 4003a98:	000b883a 	mov	r5,zero
 4003a9c:	003f5806 	br	4003800 <__alt_data_end+0xfc003800>
 4003aa0:	8000481e 	bne	r16,zero,4003bc4 <__subsf3+0x460>
 4003aa4:	18006226 	beq	r3,zero,4003c30 <__subsf3+0x4cc>
 4003aa8:	383f4726 	beq	r7,zero,40037c8 <__alt_data_end+0xfc0037c8>
 4003aac:	19c7883a 	add	r3,r3,r7
 4003ab0:	1881002c 	andhi	r2,r3,1024
 4003ab4:	103f8326 	beq	r2,zero,40038c4 <__alt_data_end+0xfc0038c4>
 4003ab8:	00bf0034 	movhi	r2,64512
 4003abc:	10bfffc4 	addi	r2,r2,-1
 4003ac0:	2821883a 	mov	r16,r5
 4003ac4:	1886703a 	and	r3,r3,r2
 4003ac8:	003f3f06 	br	40037c8 <__alt_data_end+0xfc0037c8>
 4003acc:	80001c1e 	bne	r16,zero,4003b40 <__subsf3+0x3dc>
 4003ad0:	1800261e 	bne	r3,zero,4003b6c <__subsf3+0x408>
 4003ad4:	38004c26 	beq	r7,zero,4003c08 <__subsf3+0x4a4>
 4003ad8:	3807883a 	mov	r3,r7
 4003adc:	1023883a 	mov	r17,r2
 4003ae0:	003f3906 	br	40037c8 <__alt_data_end+0xfc0037c8>
 4003ae4:	01c00044 	movi	r7,1
 4003ae8:	003f9006 	br	400392c <__alt_data_end+0xfc00392c>
 4003aec:	3807883a 	mov	r3,r7
 4003af0:	3021883a 	mov	r16,r6
 4003af4:	1023883a 	mov	r17,r2
 4003af8:	003f3306 	br	40037c8 <__alt_data_end+0xfc0037c8>
 4003afc:	8000161e 	bne	r16,zero,4003b58 <__subsf3+0x3f4>
 4003b00:	18002d26 	beq	r3,zero,4003bb8 <__subsf3+0x454>
 4003b04:	0108303a 	nor	r4,zero,r4
 4003b08:	20000a26 	beq	r4,zero,4003b34 <__subsf3+0x3d0>
 4003b0c:	01403fc4 	movi	r5,255
 4003b10:	31402926 	beq	r6,r5,4003bb8 <__subsf3+0x454>
 4003b14:	014006c4 	movi	r5,27
 4003b18:	29004716 	blt	r5,r4,4003c38 <__subsf3+0x4d4>
 4003b1c:	01400804 	movi	r5,32
 4003b20:	290bc83a 	sub	r5,r5,r4
 4003b24:	194a983a 	sll	r5,r3,r5
 4003b28:	1908d83a 	srl	r4,r3,r4
 4003b2c:	2806c03a 	cmpne	r3,r5,zero
 4003b30:	20c6b03a 	or	r3,r4,r3
 4003b34:	19c7883a 	add	r3,r3,r7
 4003b38:	3021883a 	mov	r16,r6
 4003b3c:	003f7c06 	br	4003930 <__alt_data_end+0xfc003930>
 4003b40:	1800111e 	bne	r3,zero,4003b88 <__subsf3+0x424>
 4003b44:	38003326 	beq	r7,zero,4003c14 <__subsf3+0x4b0>
 4003b48:	3807883a 	mov	r3,r7
 4003b4c:	1023883a 	mov	r17,r2
 4003b50:	04003fc4 	movi	r16,255
 4003b54:	003f1c06 	br	40037c8 <__alt_data_end+0xfc0037c8>
 4003b58:	01403fc4 	movi	r5,255
 4003b5c:	31401626 	beq	r6,r5,4003bb8 <__subsf3+0x454>
 4003b60:	0109c83a 	sub	r4,zero,r4
 4003b64:	18c10034 	orhi	r3,r3,1024
 4003b68:	003fea06 	br	4003b14 <__alt_data_end+0xfc003b14>
 4003b6c:	383f1626 	beq	r7,zero,40037c8 <__alt_data_end+0xfc0037c8>
 4003b70:	19c9c83a 	sub	r4,r3,r7
 4003b74:	2141002c 	andhi	r5,r4,1024
 4003b78:	283f5026 	beq	r5,zero,40038bc <__alt_data_end+0xfc0038bc>
 4003b7c:	38c7c83a 	sub	r3,r7,r3
 4003b80:	1023883a 	mov	r17,r2
 4003b84:	003f1006 	br	40037c8 <__alt_data_end+0xfc0037c8>
 4003b88:	38001b26 	beq	r7,zero,4003bf8 <__subsf3+0x494>
 4003b8c:	1806d0fa 	srli	r3,r3,3
 4003b90:	1900102c 	andhi	r4,r3,64
 4003b94:	20000526 	beq	r4,zero,4003bac <__subsf3+0x448>
 4003b98:	380ed0fa 	srli	r7,r7,3
 4003b9c:	3900102c 	andhi	r4,r7,64
 4003ba0:	2000021e 	bne	r4,zero,4003bac <__subsf3+0x448>
 4003ba4:	3807883a 	mov	r3,r7
 4003ba8:	1023883a 	mov	r17,r2
 4003bac:	180690fa 	slli	r3,r3,3
 4003bb0:	04003fc4 	movi	r16,255
 4003bb4:	003f0406 	br	40037c8 <__alt_data_end+0xfc0037c8>
 4003bb8:	3807883a 	mov	r3,r7
 4003bbc:	3021883a 	mov	r16,r6
 4003bc0:	003f0106 	br	40037c8 <__alt_data_end+0xfc0037c8>
 4003bc4:	18001726 	beq	r3,zero,4003c24 <__subsf3+0x4c0>
 4003bc8:	38000b26 	beq	r7,zero,4003bf8 <__subsf3+0x494>
 4003bcc:	1806d0fa 	srli	r3,r3,3
 4003bd0:	1900102c 	andhi	r4,r3,64
 4003bd4:	20000426 	beq	r4,zero,4003be8 <__subsf3+0x484>
 4003bd8:	380ed0fa 	srli	r7,r7,3
 4003bdc:	3900102c 	andhi	r4,r7,64
 4003be0:	2000011e 	bne	r4,zero,4003be8 <__subsf3+0x484>
 4003be4:	3807883a 	mov	r3,r7
 4003be8:	180690fa 	slli	r3,r3,3
 4003bec:	1023883a 	mov	r17,r2
 4003bf0:	04003fc4 	movi	r16,255
 4003bf4:	003ef406 	br	40037c8 <__alt_data_end+0xfc0037c8>
 4003bf8:	04003fc4 	movi	r16,255
 4003bfc:	003ef206 	br	40037c8 <__alt_data_end+0xfc0037c8>
 4003c00:	00c00044 	movi	r3,1
 4003c04:	003f9606 	br	4003a60 <__alt_data_end+0xfc003a60>
 4003c08:	000b883a 	mov	r5,zero
 4003c0c:	0005883a 	mov	r2,zero
 4003c10:	003f3506 	br	40038e8 <__alt_data_end+0xfc0038e8>
 4003c14:	01402034 	movhi	r5,128
 4003c18:	297fffc4 	addi	r5,r5,-1
 4003c1c:	0005883a 	mov	r2,zero
 4003c20:	003f2f06 	br	40038e0 <__alt_data_end+0xfc0038e0>
 4003c24:	3807883a 	mov	r3,r7
 4003c28:	04003fc4 	movi	r16,255
 4003c2c:	003ee606 	br	40037c8 <__alt_data_end+0xfc0037c8>
 4003c30:	3807883a 	mov	r3,r7
 4003c34:	003ee406 	br	40037c8 <__alt_data_end+0xfc0037c8>
 4003c38:	00c00044 	movi	r3,1
 4003c3c:	003fbd06 	br	4003b34 <__alt_data_end+0xfc003b34>
 4003c40:	0005883a 	mov	r2,zero
